
Output/Sniffer_802.15.4_SMLIGHT_SLZB_07/Sniffer_802.15.4_SMLIGHT_SLZB_07.elf:     file format elf32-littlearm


Disassembly of section .text:

00004000 <__Vectors>:
    4000:	00 00 01 20 f1 65 00 00 ed 65 00 00 ed 65 00 00     ... .e...e...e..
    4010:	ed 65 00 00 ed 65 00 00 ed 65 00 00 ed 65 00 00     .e...e...e...e..
    4020:	ed 65 00 00 ed 65 00 00 ed 65 00 00 ed 65 00 00     .e...e...e...e..
    4030:	ed 65 00 00 50 be 00 00 ed 65 00 00 ed 65 00 00     .e..P....e...e..
    4040:	ed 65 00 00 ed 65 00 00 ed 65 00 00 ed 65 00 00     .e...e...e...e..
    4050:	ed 65 00 00 ed 65 00 00 ed 65 00 00 ed 65 00 00     .e...e...e...e..
    4060:	ed 65 00 00 ed 65 00 00 ed 65 00 00 19 6a 00 00     .e...e...e...j..
    4070:	ed 65 00 00 ed 65 00 00 ed 65 00 00 ed 65 00 00     .e...e...e...e..
    4080:	ed 65 00 00 ed 65 00 00 ed 65 00 00 ed 65 00 00     .e...e...e...e..
    4090:	ed 65 00 00 ed 65 00 00 ed 65 00 00 ed 65 00 00     .e...e...e...e..
    40a0:	ed 65 00 00 ed 65 00 00 ed 65 00 00 ed 65 00 00     .e...e...e...e..
    40b0:	ed 65 00 00 ed 65 00 00 ed 65 00 00 61 b5 00 00     .e...e...e..a...
    40c0:	05 b5 00 00 01 b5 00 00 b9 ad 00 00 5d b5 00 00     ............]...
    40d0:	09 b5 00 00 21 b5 00 00 0d b5 00 00 99 9d 00 00     ....!...........
    40e0:	a1 b5 00 00 ed 65 00 00 ed 65 00 00 ed 65 00 00     .....e...e...e..
    40f0:	ed 65 00 00 ed 65 00 00 ed 65 00 00 ed 65 00 00     .e...e...e...e..
    4100:	ed 65 00 00 ed 65 00 00 ed 65 00 00 ed 65 00 00     .e...e...e...e..
    4110:	ed 65 00 00 ed 65 00 00 ed 65 00 00 ed 65 00 00     .e...e...e...e..
    4120:	ed 65 00 00 ed 65 00 00 ed 65 00 00 ed 65 00 00     .e...e...e...e..
    4130:	ed 65 00 00                                         .e..

00004134 <main>:
    4134:	b508      	push	{r3, lr}
    4136:	f002 fc87 	bl	6a48 <BSP_Init>
    413a:	f001 fb09 	bl	5750 <crcInit>
    413e:	f002 fb5b 	bl	67f8 <HAL_Radio_InitPromiscuousMode>
    4142:	f000 f808 	bl	4156 <PHY_Task>
    4146:	f000 fd61 	bl	4c0c <Console_Process_Rx>
    414a:	e7fa      	b.n	4142 <main+0xe>

0000414c <Mac_RxMsgCallbackPreprocessPhyRx>:
    414c:	b508      	push	{r3, lr}
    414e:	f000 fd7b 	bl	4c48 <Console_PhyToJSONV2>
    4152:	2001      	movs	r0, #1
    4154:	bd08      	pop	{r3, pc}

00004156 <PHY_Task>:
    4156:	b500      	push	{lr}
    4158:	b0a3      	sub	sp, #140	; 0x8c
    415a:	a801      	add	r0, sp, #4
    415c:	f002 fb8e 	bl	687c <HAL_Radio_GetRxPacket>
    4160:	b110      	cbz	r0, 4168 <PHY_Task+0x12>
    4162:	b023      	add	sp, #140	; 0x8c
    4164:	f85d fb04 	ldr.w	pc, [sp], #4
    4168:	a801      	add	r0, sp, #4
    416a:	f000 f805 	bl	4178 <MAC_ProcessPhyRx>
    416e:	e7f8      	b.n	4162 <PHY_Task+0xc>

00004170 <Mac_RxMsgCallbackPreprocessMacUnpacked>:
    4170:	2000      	movs	r0, #0
    4172:	4770      	bx	lr

00004174 <Mac_RxMsgCallbackPostprocessMacUnpacked>:
    4174:	2000      	movs	r0, #0
    4176:	4770      	bx	lr

00004178 <MAC_ProcessPhyRx>:
    4178:	b318      	cbz	r0, 41c2 <MAC_ProcessPhyRx+0x4a>
    417a:	b510      	push	{r4, lr}
    417c:	b0ce      	sub	sp, #312	; 0x138
    417e:	4604      	mov	r4, r0
    4180:	f7ff ffe4 	bl	414c <Mac_RxMsgCallbackPreprocessPhyRx>
    4184:	b980      	cbnz	r0, 41a8 <MAC_ProcessPhyRx+0x30>
    4186:	4621      	mov	r1, r4
    4188:	f811 2b01 	ldrb.w	r2, [r1], #1
    418c:	f88d 20b4 	strb.w	r2, [sp, #180]	; 0xb4
    4190:	f012 0f80 	tst.w	r2, #128	; 0x80
    4194:	d10a      	bne.n	41ac <MAC_ProcessPhyRx+0x34>
    4196:	f10d 00b5 	add.w	r0, sp, #181	; 0xb5
    419a:	f007 fcbf 	bl	bb1c <memcpy>
    419e:	4669      	mov	r1, sp
    41a0:	a82d      	add	r0, sp, #180	; 0xb4
    41a2:	f000 f80f 	bl	41c4 <MAC_Unpack>
    41a6:	b118      	cbz	r0, 41b0 <MAC_ProcessPhyRx+0x38>
    41a8:	b04e      	add	sp, #312	; 0x138
    41aa:	bd10      	pop	{r4, pc}
    41ac:	2280      	movs	r2, #128	; 0x80
    41ae:	e7f2      	b.n	4196 <MAC_ProcessPhyRx+0x1e>
    41b0:	4668      	mov	r0, sp
    41b2:	f7ff ffdd 	bl	4170 <Mac_RxMsgCallbackPreprocessMacUnpacked>
    41b6:	2800      	cmp	r0, #0
    41b8:	d1f6      	bne.n	41a8 <MAC_ProcessPhyRx+0x30>
    41ba:	4668      	mov	r0, sp
    41bc:	f7ff ffda 	bl	4174 <Mac_RxMsgCallbackPostprocessMacUnpacked>
    41c0:	e7f2      	b.n	41a8 <MAC_ProcessPhyRx+0x30>
    41c2:	4770      	bx	lr

000041c4 <MAC_Unpack>:
    41c4:	e92d 47f0 	stmdb	sp!, {r4, r5, r6, r7, r8, r9, sl, lr}
    41c8:	2800      	cmp	r0, #0
    41ca:	f000 8167 	beq.w	449c <MAC_Unpack+0x2d8>
    41ce:	460c      	mov	r4, r1
    41d0:	4605      	mov	r5, r0
    41d2:	2900      	cmp	r1, #0
    41d4:	f000 8164 	beq.w	44a0 <MAC_Unpack+0x2dc>
    41d8:	7803      	ldrb	r3, [r0, #0]
    41da:	2b01      	cmp	r3, #1
    41dc:	f240 8162 	bls.w	44a4 <MAC_Unpack+0x2e0>
    41e0:	22b0      	movs	r2, #176	; 0xb0
    41e2:	2100      	movs	r1, #0
    41e4:	4620      	mov	r0, r4
    41e6:	f007 fca6 	bl	bb36 <memset>
    41ea:	786a      	ldrb	r2, [r5, #1]
    41ec:	78ab      	ldrb	r3, [r5, #2]
    41ee:	ea42 2203 	orr.w	r2, r2, r3, lsl #8
    41f2:	4613      	mov	r3, r2
    41f4:	f002 0207 	and.w	r2, r2, #7
    41f8:	7022      	strb	r2, [r4, #0]
    41fa:	f3c3 07c0 	ubfx	r7, r3, #3, #1
    41fe:	7067      	strb	r7, [r4, #1]
    4200:	f3c3 1100 	ubfx	r1, r3, #4, #1
    4204:	70a1      	strb	r1, [r4, #2]
    4206:	f3c3 1140 	ubfx	r1, r3, #5, #1
    420a:	70e1      	strb	r1, [r4, #3]
    420c:	f3c3 1c80 	ubfx	ip, r3, #6, #1
    4210:	f884 c004 	strb.w	ip, [r4, #4]
    4214:	f3c3 2e00 	ubfx	lr, r3, #8, #1
    4218:	f884 e005 	strb.w	lr, [r4, #5]
    421c:	f3c3 2640 	ubfx	r6, r3, #9, #1
    4220:	71a6      	strb	r6, [r4, #6]
    4222:	f3c3 2181 	ubfx	r1, r3, #10, #2
    4226:	71e1      	strb	r1, [r4, #7]
    4228:	0b98      	lsrs	r0, r3, #14
    422a:	7260      	strb	r0, [r4, #9]
    422c:	f3c3 3301 	ubfx	r3, r3, #12, #2
    4230:	7223      	strb	r3, [r4, #8]
    4232:	2b03      	cmp	r3, #3
    4234:	f000 813a 	beq.w	44ac <MAC_Unpack+0x2e8>
    4238:	3a04      	subs	r2, #4
    423a:	2a03      	cmp	r2, #3
    423c:	f240 8138 	bls.w	44b0 <MAC_Unpack+0x2ec>
    4240:	2901      	cmp	r1, #1
    4242:	f000 8137 	beq.w	44b4 <MAC_Unpack+0x2f0>
    4246:	2801      	cmp	r0, #1
    4248:	f000 8136 	beq.w	44b8 <MAC_Unpack+0x2f4>
    424c:	2f00      	cmp	r7, #0
    424e:	f040 8135 	bne.w	44bc <MAC_Unpack+0x2f8>
    4252:	2e00      	cmp	r6, #0
    4254:	f040 8134 	bne.w	44c0 <MAC_Unpack+0x2fc>
    4258:	f1be 0f00 	cmp.w	lr, #0
    425c:	d107      	bne.n	426e <MAC_Unpack+0xaa>
    425e:	782a      	ldrb	r2, [r5, #0]
    4260:	2a02      	cmp	r2, #2
    4262:	f240 812f 	bls.w	44c4 <MAC_Unpack+0x300>
    4266:	78ea      	ldrb	r2, [r5, #3]
    4268:	72a2      	strb	r2, [r4, #10]
    426a:	2703      	movs	r7, #3
    426c:	e000      	b.n	4270 <MAC_Unpack+0xac>
    426e:	2702      	movs	r7, #2
    4270:	2b01      	cmp	r3, #1
    4272:	d967      	bls.n	4344 <MAC_Unpack+0x180>
    4274:	f04f 0800 	mov.w	r8, #0
    4278:	46c6      	mov	lr, r8
    427a:	2b02      	cmp	r3, #2
    427c:	f000 80ab 	beq.w	43d6 <MAC_Unpack+0x212>
    4280:	f1be 0f00 	cmp.w	lr, #0
    4284:	d00f      	beq.n	42a6 <MAC_Unpack+0xe2>
    4286:	1c7b      	adds	r3, r7, #1
    4288:	782a      	ldrb	r2, [r5, #0]
    428a:	4293      	cmp	r3, r2
    428c:	f280 811c 	bge.w	44c8 <MAC_Unpack+0x304>
    4290:	19ea      	adds	r2, r5, r7
    4292:	7852      	ldrb	r2, [r2, #1]
    4294:	81a2      	strh	r2, [r4, #12]
    4296:	3702      	adds	r7, #2
    4298:	b2ff      	uxtb	r7, r7
    429a:	fa55 f383 	uxtab	r3, r5, r3
    429e:	785b      	ldrb	r3, [r3, #1]
    42a0:	ea42 2203 	orr.w	r2, r2, r3, lsl #8
    42a4:	81a2      	strh	r2, [r4, #12]
    42a6:	2902      	cmp	r1, #2
    42a8:	f000 8097 	beq.w	43da <MAC_Unpack+0x216>
    42ac:	2903      	cmp	r1, #3
    42ae:	f000 80a4 	beq.w	43fa <MAC_Unpack+0x236>
    42b2:	f1b8 0f00 	cmp.w	r8, #0
    42b6:	d00f      	beq.n	42d8 <MAC_Unpack+0x114>
    42b8:	1c7b      	adds	r3, r7, #1
    42ba:	782a      	ldrb	r2, [r5, #0]
    42bc:	4293      	cmp	r3, r2
    42be:	f280 8109 	bge.w	44d4 <MAC_Unpack+0x310>
    42c2:	19ea      	adds	r2, r5, r7
    42c4:	7852      	ldrb	r2, [r2, #1]
    42c6:	8322      	strh	r2, [r4, #24]
    42c8:	3702      	adds	r7, #2
    42ca:	b2ff      	uxtb	r7, r7
    42cc:	fa55 f383 	uxtab	r3, r5, r3
    42d0:	785b      	ldrb	r3, [r3, #1]
    42d2:	ea42 2203 	orr.w	r2, r2, r3, lsl #8
    42d6:	8322      	strh	r2, [r4, #24]
    42d8:	7a63      	ldrb	r3, [r4, #9]
    42da:	2b02      	cmp	r3, #2
    42dc:	f000 809b 	beq.w	4416 <MAC_Unpack+0x252>
    42e0:	2b03      	cmp	r3, #3
    42e2:	f000 80a8 	beq.w	4436 <MAC_Unpack+0x272>
    42e6:	7a23      	ldrb	r3, [r4, #8]
    42e8:	2b01      	cmp	r3, #1
    42ea:	f240 80b2 	bls.w	4452 <MAC_Unpack+0x28e>
    42ee:	782b      	ldrb	r3, [r5, #0]
    42f0:	4639      	mov	r1, r7
    42f2:	1cba      	adds	r2, r7, #2
    42f4:	4293      	cmp	r3, r2
    42f6:	dd11      	ble.n	431c <MAC_Unpack+0x158>
    42f8:	1bda      	subs	r2, r3, r7
    42fa:	3a02      	subs	r2, #2
    42fc:	b2d2      	uxtb	r2, r2
    42fe:	f884 20a8 	strb.w	r2, [r4, #168]	; 0xa8
    4302:	2a80      	cmp	r2, #128	; 0x80
    4304:	f200 80f0 	bhi.w	44e8 <MAC_Unpack+0x324>
    4308:	4429      	add	r1, r5
    430a:	3101      	adds	r1, #1
    430c:	f104 0028 	add.w	r0, r4, #40	; 0x28
    4310:	f007 fc04 	bl	bb1c <memcpy>
    4314:	f894 30a8 	ldrb.w	r3, [r4, #168]	; 0xa8
    4318:	441f      	add	r7, r3
    431a:	b2ff      	uxtb	r7, r7
    431c:	4628      	mov	r0, r5
    431e:	f810 1b01 	ldrb.w	r1, [r0], #1
    4322:	3902      	subs	r1, #2
    4324:	f001 fa32 	bl	578c <crcFast>
    4328:	1c7a      	adds	r2, r7, #1
    432a:	442f      	add	r7, r5
    432c:	787b      	ldrb	r3, [r7, #1]
    432e:	fa55 f582 	uxtab	r5, r5, r2
    4332:	786a      	ldrb	r2, [r5, #1]
    4334:	ea43 2302 	orr.w	r3, r3, r2, lsl #8
    4338:	4298      	cmp	r0, r3
    433a:	f040 80d7 	bne.w	44ec <MAC_Unpack+0x328>
    433e:	f8a4 30ac 	strh.w	r3, [r4, #172]	; 0xac
    4342:	e0b0      	b.n	44a6 <MAC_Unpack+0x2e2>
    4344:	1e8a      	subs	r2, r1, #2
    4346:	b2d2      	uxtb	r2, r2
    4348:	2a01      	cmp	r2, #1
    434a:	d913      	bls.n	4374 <MAC_Unpack+0x1b0>
    434c:	f04f 0e00 	mov.w	lr, #0
    4350:	1e82      	subs	r2, r0, #2
    4352:	b2d2      	uxtb	r2, r2
    4354:	2a01      	cmp	r2, #1
    4356:	d910      	bls.n	437a <MAC_Unpack+0x1b6>
    4358:	f04f 0800 	mov.w	r8, #0
    435c:	f1be 0f00 	cmp.w	lr, #0
    4360:	d08b      	beq.n	427a <MAC_Unpack+0xb6>
    4362:	f1b8 0f00 	cmp.w	r8, #0
    4366:	d088      	beq.n	427a <MAC_Unpack+0xb6>
    4368:	f1bc 0f00 	cmp.w	ip, #0
    436c:	d085      	beq.n	427a <MAC_Unpack+0xb6>
    436e:	f04f 0800 	mov.w	r8, #0
    4372:	e782      	b.n	427a <MAC_Unpack+0xb6>
    4374:	f04f 0e01 	mov.w	lr, #1
    4378:	e7ea      	b.n	4350 <MAC_Unpack+0x18c>
    437a:	f04f 0801 	mov.w	r8, #1
    437e:	e7ed      	b.n	435c <MAC_Unpack+0x198>
    4380:	3301      	adds	r3, #1
    4382:	b2db      	uxtb	r3, r3
    4384:	2b11      	cmp	r3, #17
    4386:	f63f af7b 	bhi.w	4280 <MAC_Unpack+0xbc>
    438a:	eb03 0283 	add.w	r2, r3, r3, lsl #2
    438e:	f8df a160 	ldr.w	sl, [pc, #352]	; 44f0 <MAC_Unpack+0x32c>
    4392:	f81a 2002 	ldrb.w	r2, [sl, r2]
    4396:	4291      	cmp	r1, r2
    4398:	d1f2      	bne.n	4380 <MAC_Unpack+0x1bc>
    439a:	eb03 0a83 	add.w	sl, r3, r3, lsl #2
    439e:	4a54      	ldr	r2, [pc, #336]	; (44f0 <MAC_Unpack+0x32c>)
    43a0:	4452      	add	r2, sl
    43a2:	7852      	ldrb	r2, [r2, #1]
    43a4:	4290      	cmp	r0, r2
    43a6:	d1eb      	bne.n	4380 <MAC_Unpack+0x1bc>
    43a8:	4a51      	ldr	r2, [pc, #324]	; (44f0 <MAC_Unpack+0x32c>)
    43aa:	4452      	add	r2, sl
    43ac:	7912      	ldrb	r2, [r2, #4]
    43ae:	4594      	cmp	ip, r2
    43b0:	d1e6      	bne.n	4380 <MAC_Unpack+0x1bc>
    43b2:	46d1      	mov	r9, sl
    43b4:	4a4e      	ldr	r2, [pc, #312]	; (44f0 <MAC_Unpack+0x32c>)
    43b6:	4491      	add	r9, r2
    43b8:	f899 e002 	ldrb.w	lr, [r9, #2]
    43bc:	f1be 0e00 	subs.w	lr, lr, #0
    43c0:	bf18      	it	ne
    43c2:	f04f 0e01 	movne.w	lr, #1
    43c6:	f899 8003 	ldrb.w	r8, [r9, #3]
    43ca:	f1b8 0800 	subs.w	r8, r8, #0
    43ce:	bf18      	it	ne
    43d0:	f04f 0801 	movne.w	r8, #1
    43d4:	e7d4      	b.n	4380 <MAC_Unpack+0x1bc>
    43d6:	4633      	mov	r3, r6
    43d8:	e7d4      	b.n	4384 <MAC_Unpack+0x1c0>
    43da:	1c7b      	adds	r3, r7, #1
    43dc:	782a      	ldrb	r2, [r5, #0]
    43de:	4293      	cmp	r3, r2
    43e0:	da74      	bge.n	44cc <MAC_Unpack+0x308>
    43e2:	19ea      	adds	r2, r5, r7
    43e4:	7852      	ldrb	r2, [r2, #1]
    43e6:	8222      	strh	r2, [r4, #16]
    43e8:	3702      	adds	r7, #2
    43ea:	b2ff      	uxtb	r7, r7
    43ec:	fa55 f383 	uxtab	r3, r5, r3
    43f0:	785b      	ldrb	r3, [r3, #1]
    43f2:	ea42 2203 	orr.w	r2, r2, r3, lsl #8
    43f6:	8222      	strh	r2, [r4, #16]
    43f8:	e758      	b.n	42ac <MAC_Unpack+0xe8>
    43fa:	1dfb      	adds	r3, r7, #7
    43fc:	782a      	ldrb	r2, [r5, #0]
    43fe:	4293      	cmp	r3, r2
    4400:	da66      	bge.n	44d0 <MAC_Unpack+0x30c>
    4402:	19e9      	adds	r1, r5, r7
    4404:	2208      	movs	r2, #8
    4406:	3101      	adds	r1, #1
    4408:	f104 0010 	add.w	r0, r4, #16
    440c:	f007 fb86 	bl	bb1c <memcpy>
    4410:	3708      	adds	r7, #8
    4412:	b2ff      	uxtb	r7, r7
    4414:	e74d      	b.n	42b2 <MAC_Unpack+0xee>
    4416:	1c7a      	adds	r2, r7, #1
    4418:	7829      	ldrb	r1, [r5, #0]
    441a:	428a      	cmp	r2, r1
    441c:	da5c      	bge.n	44d8 <MAC_Unpack+0x314>
    441e:	19e9      	adds	r1, r5, r7
    4420:	7849      	ldrb	r1, [r1, #1]
    4422:	8421      	strh	r1, [r4, #32]
    4424:	3702      	adds	r7, #2
    4426:	b2ff      	uxtb	r7, r7
    4428:	fa55 f282 	uxtab	r2, r5, r2
    442c:	7852      	ldrb	r2, [r2, #1]
    442e:	ea41 2102 	orr.w	r1, r1, r2, lsl #8
    4432:	8421      	strh	r1, [r4, #32]
    4434:	e754      	b.n	42e0 <MAC_Unpack+0x11c>
    4436:	1dfb      	adds	r3, r7, #7
    4438:	782a      	ldrb	r2, [r5, #0]
    443a:	4293      	cmp	r3, r2
    443c:	da4e      	bge.n	44dc <MAC_Unpack+0x318>
    443e:	19e9      	adds	r1, r5, r7
    4440:	2208      	movs	r2, #8
    4442:	3101      	adds	r1, #1
    4444:	f104 0020 	add.w	r0, r4, #32
    4448:	f007 fb68 	bl	bb1c <memcpy>
    444c:	3708      	adds	r7, #8
    444e:	b2ff      	uxtb	r7, r7
    4450:	e749      	b.n	42e6 <MAC_Unpack+0x122>
    4452:	79e3      	ldrb	r3, [r4, #7]
    4454:	b923      	cbnz	r3, 4460 <MAC_Unpack+0x29c>
    4456:	7823      	ldrb	r3, [r4, #0]
    4458:	2b01      	cmp	r3, #1
    445a:	d015      	beq.n	4488 <MAC_Unpack+0x2c4>
    445c:	2b03      	cmp	r3, #3
    445e:	d013      	beq.n	4488 <MAC_Unpack+0x2c4>
    4460:	7a63      	ldrb	r3, [r4, #9]
    4462:	2b00      	cmp	r3, #0
    4464:	f47f af43 	bne.w	42ee <MAC_Unpack+0x12a>
    4468:	7823      	ldrb	r3, [r4, #0]
    446a:	2b01      	cmp	r3, #1
    446c:	d002      	beq.n	4474 <MAC_Unpack+0x2b0>
    446e:	2b03      	cmp	r3, #3
    4470:	f47f af3d 	bne.w	42ee <MAC_Unpack+0x12a>
    4474:	79e3      	ldrb	r3, [r4, #7]
    4476:	b3ab      	cbz	r3, 44e4 <MAC_Unpack+0x320>
    4478:	2202      	movs	r2, #2
    447a:	f104 010c 	add.w	r1, r4, #12
    447e:	f104 0018 	add.w	r0, r4, #24
    4482:	f007 fb4b 	bl	bb1c <memcpy>
    4486:	e732      	b.n	42ee <MAC_Unpack+0x12a>
    4488:	7a63      	ldrb	r3, [r4, #9]
    448a:	b34b      	cbz	r3, 44e0 <MAC_Unpack+0x31c>
    448c:	2202      	movs	r2, #2
    448e:	f104 0118 	add.w	r1, r4, #24
    4492:	f104 000c 	add.w	r0, r4, #12
    4496:	f007 fb41 	bl	bb1c <memcpy>
    449a:	e7e1      	b.n	4460 <MAC_Unpack+0x29c>
    449c:	2601      	movs	r6, #1
    449e:	e002      	b.n	44a6 <MAC_Unpack+0x2e2>
    44a0:	2601      	movs	r6, #1
    44a2:	e000      	b.n	44a6 <MAC_Unpack+0x2e2>
    44a4:	2602      	movs	r6, #2
    44a6:	4630      	mov	r0, r6
    44a8:	e8bd 87f0 	ldmia.w	sp!, {r4, r5, r6, r7, r8, r9, sl, pc}
    44ac:	2605      	movs	r6, #5
    44ae:	e7fa      	b.n	44a6 <MAC_Unpack+0x2e2>
    44b0:	2606      	movs	r6, #6
    44b2:	e7f8      	b.n	44a6 <MAC_Unpack+0x2e2>
    44b4:	2604      	movs	r6, #4
    44b6:	e7f6      	b.n	44a6 <MAC_Unpack+0x2e2>
    44b8:	2604      	movs	r6, #4
    44ba:	e7f4      	b.n	44a6 <MAC_Unpack+0x2e2>
    44bc:	2603      	movs	r6, #3
    44be:	e7f2      	b.n	44a6 <MAC_Unpack+0x2e2>
    44c0:	2603      	movs	r6, #3
    44c2:	e7f0      	b.n	44a6 <MAC_Unpack+0x2e2>
    44c4:	2602      	movs	r6, #2
    44c6:	e7ee      	b.n	44a6 <MAC_Unpack+0x2e2>
    44c8:	2602      	movs	r6, #2
    44ca:	e7ec      	b.n	44a6 <MAC_Unpack+0x2e2>
    44cc:	460e      	mov	r6, r1
    44ce:	e7ea      	b.n	44a6 <MAC_Unpack+0x2e2>
    44d0:	2602      	movs	r6, #2
    44d2:	e7e8      	b.n	44a6 <MAC_Unpack+0x2e2>
    44d4:	2602      	movs	r6, #2
    44d6:	e7e6      	b.n	44a6 <MAC_Unpack+0x2e2>
    44d8:	461e      	mov	r6, r3
    44da:	e7e4      	b.n	44a6 <MAC_Unpack+0x2e2>
    44dc:	2602      	movs	r6, #2
    44de:	e7e2      	b.n	44a6 <MAC_Unpack+0x2e2>
    44e0:	2604      	movs	r6, #4
    44e2:	e7e0      	b.n	44a6 <MAC_Unpack+0x2e2>
    44e4:	2604      	movs	r6, #4
    44e6:	e7de      	b.n	44a6 <MAC_Unpack+0x2e2>
    44e8:	2602      	movs	r6, #2
    44ea:	e7dc      	b.n	44a6 <MAC_Unpack+0x2e2>
    44ec:	2607      	movs	r6, #7
    44ee:	e7da      	b.n	44a6 <MAC_Unpack+0x2e2>
    44f0:	0000bc6c 	.word	0x0000bc6c

000044f4 <jsmn_alloc_token>:
    44f4:	6843      	ldr	r3, [r0, #4]
    44f6:	4293      	cmp	r3, r2
    44f8:	d20a      	bcs.n	4510 <jsmn_alloc_token+0x1c>
    44fa:	1c5a      	adds	r2, r3, #1
    44fc:	6042      	str	r2, [r0, #4]
    44fe:	eb01 1003 	add.w	r0, r1, r3, lsl #4
    4502:	f04f 33ff 	mov.w	r3, #4294967295	; 0xffffffff
    4506:	6083      	str	r3, [r0, #8]
    4508:	6043      	str	r3, [r0, #4]
    450a:	2300      	movs	r3, #0
    450c:	60c3      	str	r3, [r0, #12]
    450e:	4770      	bx	lr
    4510:	2000      	movs	r0, #0
    4512:	4770      	bx	lr

00004514 <jsmn_fill_token>:
    4514:	7001      	strb	r1, [r0, #0]
    4516:	6042      	str	r2, [r0, #4]
    4518:	6083      	str	r3, [r0, #8]
    451a:	2300      	movs	r3, #0
    451c:	60c3      	str	r3, [r0, #12]
    451e:	4770      	bx	lr

00004520 <jsmn_parse_primitive>:
    4520:	b5f8      	push	{r3, r4, r5, r6, r7, lr}
    4522:	4606      	mov	r6, r0
    4524:	4608      	mov	r0, r1
    4526:	4619      	mov	r1, r3
    4528:	6837      	ldr	r7, [r6, #0]
    452a:	e00b      	b.n	4544 <jsmn_parse_primitive+0x24>
    452c:	2c5d      	cmp	r4, #93	; 0x5d
    452e:	d067      	beq.n	4600 <jsmn_parse_primitive+0xe0>
    4530:	2c7d      	cmp	r4, #125	; 0x7d
    4532:	d065      	beq.n	4600 <jsmn_parse_primitive+0xe0>
    4534:	2c3a      	cmp	r4, #58	; 0x3a
    4536:	d063      	beq.n	4600 <jsmn_parse_primitive+0xe0>
    4538:	3c20      	subs	r4, #32
    453a:	b2e4      	uxtb	r4, r4
    453c:	2c5e      	cmp	r4, #94	; 0x5e
    453e:	d85b      	bhi.n	45f8 <jsmn_parse_primitive+0xd8>
    4540:	3501      	adds	r5, #1
    4542:	6035      	str	r5, [r6, #0]
    4544:	6835      	ldr	r5, [r6, #0]
    4546:	4295      	cmp	r5, r2
    4548:	d25a      	bcs.n	4600 <jsmn_parse_primitive+0xe0>
    454a:	5d44      	ldrb	r4, [r0, r5]
    454c:	2c00      	cmp	r4, #0
    454e:	d057      	beq.n	4600 <jsmn_parse_primitive+0xe0>
    4550:	2c2c      	cmp	r4, #44	; 0x2c
    4552:	d8eb      	bhi.n	452c <jsmn_parse_primitive+0xc>
    4554:	2c09      	cmp	r4, #9
    4556:	d3ef      	bcc.n	4538 <jsmn_parse_primitive+0x18>
    4558:	f1a4 0c09 	sub.w	ip, r4, #9
    455c:	f1bc 0f23 	cmp.w	ip, #35	; 0x23
    4560:	d8ea      	bhi.n	4538 <jsmn_parse_primitive+0x18>
    4562:	a301      	add	r3, pc, #4	; (adr r3, 4568 <jsmn_parse_primitive+0x48>)
    4564:	f853 f02c 	ldr.w	pc, [r3, ip, lsl #2]
    4568:	00004601 	.word	0x00004601
    456c:	00004601 	.word	0x00004601
    4570:	00004539 	.word	0x00004539
    4574:	00004539 	.word	0x00004539
    4578:	00004601 	.word	0x00004601
    457c:	00004539 	.word	0x00004539
    4580:	00004539 	.word	0x00004539
    4584:	00004539 	.word	0x00004539
    4588:	00004539 	.word	0x00004539
    458c:	00004539 	.word	0x00004539
    4590:	00004539 	.word	0x00004539
    4594:	00004539 	.word	0x00004539
    4598:	00004539 	.word	0x00004539
    459c:	00004539 	.word	0x00004539
    45a0:	00004539 	.word	0x00004539
    45a4:	00004539 	.word	0x00004539
    45a8:	00004539 	.word	0x00004539
    45ac:	00004539 	.word	0x00004539
    45b0:	00004539 	.word	0x00004539
    45b4:	00004539 	.word	0x00004539
    45b8:	00004539 	.word	0x00004539
    45bc:	00004539 	.word	0x00004539
    45c0:	00004539 	.word	0x00004539
    45c4:	00004601 	.word	0x00004601
    45c8:	00004539 	.word	0x00004539
    45cc:	00004539 	.word	0x00004539
    45d0:	00004539 	.word	0x00004539
    45d4:	00004539 	.word	0x00004539
    45d8:	00004539 	.word	0x00004539
    45dc:	00004539 	.word	0x00004539
    45e0:	00004539 	.word	0x00004539
    45e4:	00004539 	.word	0x00004539
    45e8:	00004539 	.word	0x00004539
    45ec:	00004539 	.word	0x00004539
    45f0:	00004539 	.word	0x00004539
    45f4:	00004601 	.word	0x00004601
    45f8:	6037      	str	r7, [r6, #0]
    45fa:	f06f 0001 	mvn.w	r0, #1
    45fe:	e00e      	b.n	461e <jsmn_parse_primitive+0xfe>
    4600:	b171      	cbz	r1, 4620 <jsmn_parse_primitive+0x100>
    4602:	9a06      	ldr	r2, [sp, #24]
    4604:	4630      	mov	r0, r6
    4606:	f7ff ff75 	bl	44f4 <jsmn_alloc_token>
    460a:	b168      	cbz	r0, 4628 <jsmn_parse_primitive+0x108>
    460c:	6833      	ldr	r3, [r6, #0]
    460e:	463a      	mov	r2, r7
    4610:	2104      	movs	r1, #4
    4612:	f7ff ff7f 	bl	4514 <jsmn_fill_token>
    4616:	6833      	ldr	r3, [r6, #0]
    4618:	3b01      	subs	r3, #1
    461a:	6033      	str	r3, [r6, #0]
    461c:	2000      	movs	r0, #0
    461e:	bdf8      	pop	{r3, r4, r5, r6, r7, pc}
    4620:	3d01      	subs	r5, #1
    4622:	6035      	str	r5, [r6, #0]
    4624:	2000      	movs	r0, #0
    4626:	e7fa      	b.n	461e <jsmn_parse_primitive+0xfe>
    4628:	6037      	str	r7, [r6, #0]
    462a:	f04f 30ff 	mov.w	r0, #4294967295	; 0xffffffff
    462e:	e7f6      	b.n	461e <jsmn_parse_primitive+0xfe>

00004630 <jsmn_parse_string>:
    4630:	b570      	push	{r4, r5, r6, lr}
    4632:	4605      	mov	r5, r0
    4634:	6806      	ldr	r6, [r0, #0]
    4636:	1c70      	adds	r0, r6, #1
    4638:	6028      	str	r0, [r5, #0]
    463a:	e048      	b.n	46ce <jsmn_parse_string+0x9e>
    463c:	2b00      	cmp	r3, #0
    463e:	f000 8099 	beq.w	4774 <jsmn_parse_string+0x144>
    4642:	9a04      	ldr	r2, [sp, #16]
    4644:	4619      	mov	r1, r3
    4646:	4628      	mov	r0, r5
    4648:	f7ff ff54 	bl	44f4 <jsmn_alloc_token>
    464c:	b130      	cbz	r0, 465c <jsmn_parse_string+0x2c>
    464e:	682b      	ldr	r3, [r5, #0]
    4650:	1c72      	adds	r2, r6, #1
    4652:	2103      	movs	r1, #3
    4654:	f7ff ff5e 	bl	4514 <jsmn_fill_token>
    4658:	2000      	movs	r0, #0
    465a:	e00a      	b.n	4672 <jsmn_parse_string+0x42>
    465c:	602e      	str	r6, [r5, #0]
    465e:	f04f 30ff 	mov.w	r0, #4294967295	; 0xffffffff
    4662:	e006      	b.n	4672 <jsmn_parse_string+0x42>
    4664:	2822      	cmp	r0, #34	; 0x22
    4666:	d02f      	beq.n	46c8 <jsmn_parse_string+0x98>
    4668:	282f      	cmp	r0, #47	; 0x2f
    466a:	d02d      	beq.n	46c8 <jsmn_parse_string+0x98>
    466c:	602e      	str	r6, [r5, #0]
    466e:	f06f 0001 	mvn.w	r0, #1
    4672:	bd70      	pop	{r4, r5, r6, pc}
    4674:	3401      	adds	r4, #1
    4676:	602c      	str	r4, [r5, #0]
    4678:	f04f 0e00 	mov.w	lr, #0
    467c:	e003      	b.n	4686 <jsmn_parse_string+0x56>
    467e:	3001      	adds	r0, #1
    4680:	6028      	str	r0, [r5, #0]
    4682:	f10e 0e01 	add.w	lr, lr, #1
    4686:	f1be 0f03 	cmp.w	lr, #3
    468a:	dc1a      	bgt.n	46c2 <jsmn_parse_string+0x92>
    468c:	6828      	ldr	r0, [r5, #0]
    468e:	4290      	cmp	r0, r2
    4690:	d217      	bcs.n	46c2 <jsmn_parse_string+0x92>
    4692:	5c0c      	ldrb	r4, [r1, r0]
    4694:	b1ac      	cbz	r4, 46c2 <jsmn_parse_string+0x92>
    4696:	f1a4 0c30 	sub.w	ip, r4, #48	; 0x30
    469a:	fa5f fc8c 	uxtb.w	ip, ip
    469e:	f1bc 0f09 	cmp.w	ip, #9
    46a2:	d9ec      	bls.n	467e <jsmn_parse_string+0x4e>
    46a4:	f1a4 0c41 	sub.w	ip, r4, #65	; 0x41
    46a8:	fa5f fc8c 	uxtb.w	ip, ip
    46ac:	f1bc 0f05 	cmp.w	ip, #5
    46b0:	d9e5      	bls.n	467e <jsmn_parse_string+0x4e>
    46b2:	3c61      	subs	r4, #97	; 0x61
    46b4:	b2e4      	uxtb	r4, r4
    46b6:	2c05      	cmp	r4, #5
    46b8:	d9e1      	bls.n	467e <jsmn_parse_string+0x4e>
    46ba:	602e      	str	r6, [r5, #0]
    46bc:	f06f 0001 	mvn.w	r0, #1
    46c0:	e7d7      	b.n	4672 <jsmn_parse_string+0x42>
    46c2:	6828      	ldr	r0, [r5, #0]
    46c4:	3801      	subs	r0, #1
    46c6:	6028      	str	r0, [r5, #0]
    46c8:	6828      	ldr	r0, [r5, #0]
    46ca:	3001      	adds	r0, #1
    46cc:	6028      	str	r0, [r5, #0]
    46ce:	682c      	ldr	r4, [r5, #0]
    46d0:	4294      	cmp	r4, r2
    46d2:	d24b      	bcs.n	476c <jsmn_parse_string+0x13c>
    46d4:	5d08      	ldrb	r0, [r1, r4]
    46d6:	2800      	cmp	r0, #0
    46d8:	d048      	beq.n	476c <jsmn_parse_string+0x13c>
    46da:	2822      	cmp	r0, #34	; 0x22
    46dc:	d0ae      	beq.n	463c <jsmn_parse_string+0xc>
    46de:	285c      	cmp	r0, #92	; 0x5c
    46e0:	d1f2      	bne.n	46c8 <jsmn_parse_string+0x98>
    46e2:	3401      	adds	r4, #1
    46e4:	4294      	cmp	r4, r2
    46e6:	d2ef      	bcs.n	46c8 <jsmn_parse_string+0x98>
    46e8:	602c      	str	r4, [r5, #0]
    46ea:	5d08      	ldrb	r0, [r1, r4]
    46ec:	2875      	cmp	r0, #117	; 0x75
    46ee:	d8bd      	bhi.n	466c <jsmn_parse_string+0x3c>
    46f0:	285c      	cmp	r0, #92	; 0x5c
    46f2:	d3b7      	bcc.n	4664 <jsmn_parse_string+0x34>
    46f4:	385c      	subs	r0, #92	; 0x5c
    46f6:	2819      	cmp	r0, #25
    46f8:	d8b8      	bhi.n	466c <jsmn_parse_string+0x3c>
    46fa:	f20f 0c08 	addw	ip, pc, #8
    46fe:	f85c f020 	ldr.w	pc, [ip, r0, lsl #2]
    4702:	bf00      	nop
    4704:	000046c9 	.word	0x000046c9
    4708:	0000466d 	.word	0x0000466d
    470c:	0000466d 	.word	0x0000466d
    4710:	0000466d 	.word	0x0000466d
    4714:	0000466d 	.word	0x0000466d
    4718:	0000466d 	.word	0x0000466d
    471c:	000046c9 	.word	0x000046c9
    4720:	0000466d 	.word	0x0000466d
    4724:	0000466d 	.word	0x0000466d
    4728:	0000466d 	.word	0x0000466d
    472c:	000046c9 	.word	0x000046c9
    4730:	0000466d 	.word	0x0000466d
    4734:	0000466d 	.word	0x0000466d
    4738:	0000466d 	.word	0x0000466d
    473c:	0000466d 	.word	0x0000466d
    4740:	0000466d 	.word	0x0000466d
    4744:	0000466d 	.word	0x0000466d
    4748:	0000466d 	.word	0x0000466d
    474c:	000046c9 	.word	0x000046c9
    4750:	0000466d 	.word	0x0000466d
    4754:	0000466d 	.word	0x0000466d
    4758:	0000466d 	.word	0x0000466d
    475c:	000046c9 	.word	0x000046c9
    4760:	0000466d 	.word	0x0000466d
    4764:	000046c9 	.word	0x000046c9
    4768:	00004675 	.word	0x00004675
    476c:	602e      	str	r6, [r5, #0]
    476e:	f06f 0002 	mvn.w	r0, #2
    4772:	e77e      	b.n	4672 <jsmn_parse_string+0x42>
    4774:	2000      	movs	r0, #0
    4776:	e77c      	b.n	4672 <jsmn_parse_string+0x42>

00004778 <write_json_parameter>:
    4778:	b570      	push	{r4, r5, r6, lr}
    477a:	4605      	mov	r5, r0
    477c:	460c      	mov	r4, r1
    477e:	f89d 6018 	ldrb.w	r6, [sp, #24]
    4782:	8808      	ldrh	r0, [r1, #0]
    4784:	1c41      	adds	r1, r0, #1
    4786:	8021      	strh	r1, [r4, #0]
    4788:	2122      	movs	r1, #34	; 0x22
    478a:	5429      	strb	r1, [r5, r0]
    478c:	8820      	ldrh	r0, [r4, #0]
    478e:	f100 0c01 	add.w	ip, r0, #1
    4792:	f8a4 c000 	strh.w	ip, [r4]
    4796:	542a      	strb	r2, [r5, r0]
    4798:	8822      	ldrh	r2, [r4, #0]
    479a:	1c50      	adds	r0, r2, #1
    479c:	8020      	strh	r0, [r4, #0]
    479e:	54a9      	strb	r1, [r5, r2]
    47a0:	8822      	ldrh	r2, [r4, #0]
    47a2:	1c51      	adds	r1, r2, #1
    47a4:	8021      	strh	r1, [r4, #0]
    47a6:	213a      	movs	r1, #58	; 0x3a
    47a8:	54a9      	strb	r1, [r5, r2]
    47aa:	b926      	cbnz	r6, 47b6 <write_json_parameter+0x3e>
    47ac:	8822      	ldrh	r2, [r4, #0]
    47ae:	1c51      	adds	r1, r2, #1
    47b0:	8021      	strh	r1, [r4, #0]
    47b2:	2122      	movs	r1, #34	; 0x22
    47b4:	54a9      	strb	r1, [r5, r2]
    47b6:	8820      	ldrh	r0, [r4, #0]
    47b8:	9a05      	ldr	r2, [sp, #20]
    47ba:	f89d 1010 	ldrb.w	r1, [sp, #16]
    47be:	4428      	add	r0, r5
    47c0:	f000 ff8e 	bl	56e0 <snprintf_>
    47c4:	8823      	ldrh	r3, [r4, #0]
    47c6:	4418      	add	r0, r3
    47c8:	b280      	uxth	r0, r0
    47ca:	8020      	strh	r0, [r4, #0]
    47cc:	b91e      	cbnz	r6, 47d6 <write_json_parameter+0x5e>
    47ce:	1c43      	adds	r3, r0, #1
    47d0:	8023      	strh	r3, [r4, #0]
    47d2:	2322      	movs	r3, #34	; 0x22
    47d4:	542b      	strb	r3, [r5, r0]
    47d6:	8823      	ldrh	r3, [r4, #0]
    47d8:	1c5a      	adds	r2, r3, #1
    47da:	8022      	strh	r2, [r4, #0]
    47dc:	222c      	movs	r2, #44	; 0x2c
    47de:	54ea      	strb	r2, [r5, r3]
    47e0:	bd70      	pop	{r4, r5, r6, pc}
	...

000047e4 <jsmn_parse>:
    47e4:	e92d 47f0 	stmdb	sp!, {r4, r5, r6, r7, r8, r9, sl, lr}
    47e8:	b082      	sub	sp, #8
    47ea:	4605      	mov	r5, r0
    47ec:	4688      	mov	r8, r1
    47ee:	4617      	mov	r7, r2
    47f0:	461e      	mov	r6, r3
    47f2:	f8dd a028 	ldr.w	sl, [sp, #40]	; 0x28
    47f6:	f8d0 9004 	ldr.w	r9, [r0, #4]
    47fa:	e096      	b.n	492a <jsmn_parse+0x146>
    47fc:	2c7b      	cmp	r4, #123	; 0x7b
    47fe:	d027      	beq.n	4850 <jsmn_parse+0x6c>
    4800:	d91a      	bls.n	4838 <jsmn_parse+0x54>
    4802:	2c7d      	cmp	r4, #125	; 0x7d
    4804:	d01c      	beq.n	4840 <jsmn_parse+0x5c>
    4806:	f8cd a000 	str.w	sl, [sp]
    480a:	4633      	mov	r3, r6
    480c:	463a      	mov	r2, r7
    480e:	4641      	mov	r1, r8
    4810:	4628      	mov	r0, r5
    4812:	f7ff fe85 	bl	4520 <jsmn_parse_primitive>
    4816:	2800      	cmp	r0, #0
    4818:	f2c0 814a 	blt.w	4ab0 <jsmn_parse+0x2cc>
    481c:	f109 0901 	add.w	r9, r9, #1
    4820:	68ab      	ldr	r3, [r5, #8]
    4822:	f1b3 3fff 	cmp.w	r3, #4294967295	; 0xffffffff
    4826:	d07d      	beq.n	4924 <jsmn_parse+0x140>
    4828:	2e00      	cmp	r6, #0
    482a:	d07b      	beq.n	4924 <jsmn_parse+0x140>
    482c:	eb06 1303 	add.w	r3, r6, r3, lsl #4
    4830:	68da      	ldr	r2, [r3, #12]
    4832:	3201      	adds	r2, #1
    4834:	60da      	str	r2, [r3, #12]
    4836:	e075      	b.n	4924 <jsmn_parse+0x140>
    4838:	2c5b      	cmp	r4, #91	; 0x5b
    483a:	d009      	beq.n	4850 <jsmn_parse+0x6c>
    483c:	2c5d      	cmp	r4, #93	; 0x5d
    483e:	d1e2      	bne.n	4806 <jsmn_parse+0x22>
    4840:	2e00      	cmp	r6, #0
    4842:	d06f      	beq.n	4924 <jsmn_parse+0x140>
    4844:	2c7d      	cmp	r4, #125	; 0x7d
    4846:	d025      	beq.n	4894 <jsmn_parse+0xb0>
    4848:	2002      	movs	r0, #2
    484a:	686c      	ldr	r4, [r5, #4]
    484c:	3c01      	subs	r4, #1
    484e:	e024      	b.n	489a <jsmn_parse+0xb6>
    4850:	f109 0901 	add.w	r9, r9, #1
    4854:	2e00      	cmp	r6, #0
    4856:	d065      	beq.n	4924 <jsmn_parse+0x140>
    4858:	4652      	mov	r2, sl
    485a:	4631      	mov	r1, r6
    485c:	4628      	mov	r0, r5
    485e:	f7ff fe49 	bl	44f4 <jsmn_alloc_token>
    4862:	4602      	mov	r2, r0
    4864:	2800      	cmp	r0, #0
    4866:	f000 811b 	beq.w	4aa0 <jsmn_parse+0x2bc>
    486a:	68ab      	ldr	r3, [r5, #8]
    486c:	f1b3 3fff 	cmp.w	r3, #4294967295	; 0xffffffff
    4870:	d004      	beq.n	487c <jsmn_parse+0x98>
    4872:	eb06 1303 	add.w	r3, r6, r3, lsl #4
    4876:	68d9      	ldr	r1, [r3, #12]
    4878:	3101      	adds	r1, #1
    487a:	60d9      	str	r1, [r3, #12]
    487c:	2c7b      	cmp	r4, #123	; 0x7b
    487e:	d007      	beq.n	4890 <jsmn_parse+0xac>
    4880:	2302      	movs	r3, #2
    4882:	7013      	strb	r3, [r2, #0]
    4884:	682b      	ldr	r3, [r5, #0]
    4886:	6053      	str	r3, [r2, #4]
    4888:	686b      	ldr	r3, [r5, #4]
    488a:	3b01      	subs	r3, #1
    488c:	60ab      	str	r3, [r5, #8]
    488e:	e049      	b.n	4924 <jsmn_parse+0x140>
    4890:	2301      	movs	r3, #1
    4892:	e7f6      	b.n	4882 <jsmn_parse+0x9e>
    4894:	2001      	movs	r0, #1
    4896:	e7d8      	b.n	484a <jsmn_parse+0x66>
    4898:	3c01      	subs	r4, #1
    489a:	2c00      	cmp	r4, #0
    489c:	db12      	blt.n	48c4 <jsmn_parse+0xe0>
    489e:	eb06 1204 	add.w	r2, r6, r4, lsl #4
    48a2:	6851      	ldr	r1, [r2, #4]
    48a4:	f1b1 3fff 	cmp.w	r1, #4294967295	; 0xffffffff
    48a8:	d0f6      	beq.n	4898 <jsmn_parse+0xb4>
    48aa:	6891      	ldr	r1, [r2, #8]
    48ac:	f1b1 3fff 	cmp.w	r1, #4294967295	; 0xffffffff
    48b0:	d1f2      	bne.n	4898 <jsmn_parse+0xb4>
    48b2:	7811      	ldrb	r1, [r2, #0]
    48b4:	4281      	cmp	r1, r0
    48b6:	f040 80f6 	bne.w	4aa6 <jsmn_parse+0x2c2>
    48ba:	f04f 31ff 	mov.w	r1, #4294967295	; 0xffffffff
    48be:	60a9      	str	r1, [r5, #8]
    48c0:	3301      	adds	r3, #1
    48c2:	6093      	str	r3, [r2, #8]
    48c4:	f1b4 3fff 	cmp.w	r4, #4294967295	; 0xffffffff
    48c8:	d103      	bne.n	48d2 <jsmn_parse+0xee>
    48ca:	f06f 0901 	mvn.w	r9, #1
    48ce:	e0e3      	b.n	4a98 <jsmn_parse+0x2b4>
    48d0:	3c01      	subs	r4, #1
    48d2:	2c00      	cmp	r4, #0
    48d4:	db26      	blt.n	4924 <jsmn_parse+0x140>
    48d6:	eb06 1304 	add.w	r3, r6, r4, lsl #4
    48da:	685a      	ldr	r2, [r3, #4]
    48dc:	f1b2 3fff 	cmp.w	r2, #4294967295	; 0xffffffff
    48e0:	d0f6      	beq.n	48d0 <jsmn_parse+0xec>
    48e2:	689b      	ldr	r3, [r3, #8]
    48e4:	f1b3 3fff 	cmp.w	r3, #4294967295	; 0xffffffff
    48e8:	d1f2      	bne.n	48d0 <jsmn_parse+0xec>
    48ea:	60ac      	str	r4, [r5, #8]
    48ec:	e01a      	b.n	4924 <jsmn_parse+0x140>
    48ee:	f8cd a000 	str.w	sl, [sp]
    48f2:	4633      	mov	r3, r6
    48f4:	463a      	mov	r2, r7
    48f6:	4641      	mov	r1, r8
    48f8:	4628      	mov	r0, r5
    48fa:	f7ff fe99 	bl	4630 <jsmn_parse_string>
    48fe:	2800      	cmp	r0, #0
    4900:	f2c0 80d4 	blt.w	4aac <jsmn_parse+0x2c8>
    4904:	f109 0901 	add.w	r9, r9, #1
    4908:	68ab      	ldr	r3, [r5, #8]
    490a:	f1b3 3fff 	cmp.w	r3, #4294967295	; 0xffffffff
    490e:	d009      	beq.n	4924 <jsmn_parse+0x140>
    4910:	b146      	cbz	r6, 4924 <jsmn_parse+0x140>
    4912:	eb06 1303 	add.w	r3, r6, r3, lsl #4
    4916:	68da      	ldr	r2, [r3, #12]
    4918:	3201      	adds	r2, #1
    491a:	60da      	str	r2, [r3, #12]
    491c:	e002      	b.n	4924 <jsmn_parse+0x140>
    491e:	686b      	ldr	r3, [r5, #4]
    4920:	3b01      	subs	r3, #1
    4922:	60ab      	str	r3, [r5, #8]
    4924:	682b      	ldr	r3, [r5, #0]
    4926:	3301      	adds	r3, #1
    4928:	602b      	str	r3, [r5, #0]
    492a:	682b      	ldr	r3, [r5, #0]
    492c:	42bb      	cmp	r3, r7
    492e:	f080 80a0 	bcs.w	4a72 <jsmn_parse+0x28e>
    4932:	f818 4003 	ldrb.w	r4, [r8, r3]
    4936:	2c00      	cmp	r4, #0
    4938:	f000 809b 	beq.w	4a72 <jsmn_parse+0x28e>
    493c:	2c3a      	cmp	r4, #58	; 0x3a
    493e:	f63f af5d 	bhi.w	47fc <jsmn_parse+0x18>
    4942:	2c09      	cmp	r4, #9
    4944:	f4ff af5f 	bcc.w	4806 <jsmn_parse+0x22>
    4948:	3c09      	subs	r4, #9
    494a:	2c31      	cmp	r4, #49	; 0x31
    494c:	f63f af5b 	bhi.w	4806 <jsmn_parse+0x22>
    4950:	a301      	add	r3, pc, #4	; (adr r3, 4958 <jsmn_parse+0x174>)
    4952:	f853 f024 	ldr.w	pc, [r3, r4, lsl #2]
    4956:	bf00      	nop
    4958:	00004925 	.word	0x00004925
    495c:	00004925 	.word	0x00004925
    4960:	00004807 	.word	0x00004807
    4964:	00004807 	.word	0x00004807
    4968:	00004925 	.word	0x00004925
    496c:	00004807 	.word	0x00004807
    4970:	00004807 	.word	0x00004807
    4974:	00004807 	.word	0x00004807
    4978:	00004807 	.word	0x00004807
    497c:	00004807 	.word	0x00004807
    4980:	00004807 	.word	0x00004807
    4984:	00004807 	.word	0x00004807
    4988:	00004807 	.word	0x00004807
    498c:	00004807 	.word	0x00004807
    4990:	00004807 	.word	0x00004807
    4994:	00004807 	.word	0x00004807
    4998:	00004807 	.word	0x00004807
    499c:	00004807 	.word	0x00004807
    49a0:	00004807 	.word	0x00004807
    49a4:	00004807 	.word	0x00004807
    49a8:	00004807 	.word	0x00004807
    49ac:	00004807 	.word	0x00004807
    49b0:	00004807 	.word	0x00004807
    49b4:	00004925 	.word	0x00004925
    49b8:	00004807 	.word	0x00004807
    49bc:	000048ef 	.word	0x000048ef
    49c0:	00004807 	.word	0x00004807
    49c4:	00004807 	.word	0x00004807
    49c8:	00004807 	.word	0x00004807
    49cc:	00004807 	.word	0x00004807
    49d0:	00004807 	.word	0x00004807
    49d4:	00004807 	.word	0x00004807
    49d8:	00004807 	.word	0x00004807
    49dc:	00004807 	.word	0x00004807
    49e0:	00004807 	.word	0x00004807
    49e4:	00004a21 	.word	0x00004a21
    49e8:	00004807 	.word	0x00004807
    49ec:	00004807 	.word	0x00004807
    49f0:	00004807 	.word	0x00004807
    49f4:	00004807 	.word	0x00004807
    49f8:	00004807 	.word	0x00004807
    49fc:	00004807 	.word	0x00004807
    4a00:	00004807 	.word	0x00004807
    4a04:	00004807 	.word	0x00004807
    4a08:	00004807 	.word	0x00004807
    4a0c:	00004807 	.word	0x00004807
    4a10:	00004807 	.word	0x00004807
    4a14:	00004807 	.word	0x00004807
    4a18:	00004807 	.word	0x00004807
    4a1c:	0000491f 	.word	0x0000491f
    4a20:	2e00      	cmp	r6, #0
    4a22:	f43f af7f 	beq.w	4924 <jsmn_parse+0x140>
    4a26:	68ab      	ldr	r3, [r5, #8]
    4a28:	f1b3 3fff 	cmp.w	r3, #4294967295	; 0xffffffff
    4a2c:	f43f af7a 	beq.w	4924 <jsmn_parse+0x140>
    4a30:	011b      	lsls	r3, r3, #4
    4a32:	5cf3      	ldrb	r3, [r6, r3]
    4a34:	2b02      	cmp	r3, #2
    4a36:	f43f af75 	beq.w	4924 <jsmn_parse+0x140>
    4a3a:	2b01      	cmp	r3, #1
    4a3c:	f43f af72 	beq.w	4924 <jsmn_parse+0x140>
    4a40:	686a      	ldr	r2, [r5, #4]
    4a42:	3a01      	subs	r2, #1
    4a44:	e000      	b.n	4a48 <jsmn_parse+0x264>
    4a46:	3a01      	subs	r2, #1
    4a48:	2a00      	cmp	r2, #0
    4a4a:	f6ff af6b 	blt.w	4924 <jsmn_parse+0x140>
    4a4e:	0113      	lsls	r3, r2, #4
    4a50:	eb06 1102 	add.w	r1, r6, r2, lsl #4
    4a54:	5cf3      	ldrb	r3, [r6, r3]
    4a56:	3b01      	subs	r3, #1
    4a58:	b2db      	uxtb	r3, r3
    4a5a:	2b01      	cmp	r3, #1
    4a5c:	d8f3      	bhi.n	4a46 <jsmn_parse+0x262>
    4a5e:	684b      	ldr	r3, [r1, #4]
    4a60:	f1b3 3fff 	cmp.w	r3, #4294967295	; 0xffffffff
    4a64:	d0ef      	beq.n	4a46 <jsmn_parse+0x262>
    4a66:	688b      	ldr	r3, [r1, #8]
    4a68:	f1b3 3fff 	cmp.w	r3, #4294967295	; 0xffffffff
    4a6c:	d1eb      	bne.n	4a46 <jsmn_parse+0x262>
    4a6e:	60aa      	str	r2, [r5, #8]
    4a70:	e758      	b.n	4924 <jsmn_parse+0x140>
    4a72:	b18e      	cbz	r6, 4a98 <jsmn_parse+0x2b4>
    4a74:	686b      	ldr	r3, [r5, #4]
    4a76:	3b01      	subs	r3, #1
    4a78:	e000      	b.n	4a7c <jsmn_parse+0x298>
    4a7a:	3b01      	subs	r3, #1
    4a7c:	2b00      	cmp	r3, #0
    4a7e:	db0b      	blt.n	4a98 <jsmn_parse+0x2b4>
    4a80:	eb06 1203 	add.w	r2, r6, r3, lsl #4
    4a84:	6851      	ldr	r1, [r2, #4]
    4a86:	f1b1 3fff 	cmp.w	r1, #4294967295	; 0xffffffff
    4a8a:	d0f6      	beq.n	4a7a <jsmn_parse+0x296>
    4a8c:	6892      	ldr	r2, [r2, #8]
    4a8e:	f1b2 3fff 	cmp.w	r2, #4294967295	; 0xffffffff
    4a92:	d1f2      	bne.n	4a7a <jsmn_parse+0x296>
    4a94:	f06f 0902 	mvn.w	r9, #2
    4a98:	4648      	mov	r0, r9
    4a9a:	b002      	add	sp, #8
    4a9c:	e8bd 87f0 	ldmia.w	sp!, {r4, r5, r6, r7, r8, r9, sl, pc}
    4aa0:	f04f 39ff 	mov.w	r9, #4294967295	; 0xffffffff
    4aa4:	e7f8      	b.n	4a98 <jsmn_parse+0x2b4>
    4aa6:	f06f 0901 	mvn.w	r9, #1
    4aaa:	e7f5      	b.n	4a98 <jsmn_parse+0x2b4>
    4aac:	4681      	mov	r9, r0
    4aae:	e7f3      	b.n	4a98 <jsmn_parse+0x2b4>
    4ab0:	4681      	mov	r9, r0
    4ab2:	e7f1      	b.n	4a98 <jsmn_parse+0x2b4>

00004ab4 <jsmn_init>:
    4ab4:	2300      	movs	r3, #0
    4ab6:	6003      	str	r3, [r0, #0]
    4ab8:	6043      	str	r3, [r0, #4]
    4aba:	f04f 33ff 	mov.w	r3, #4294967295	; 0xffffffff
    4abe:	6083      	str	r3, [r0, #8]
    4ac0:	4770      	bx	lr

00004ac2 <console_process_rx_json>:
    4ac2:	b570      	push	{r4, r5, r6, lr}
    4ac4:	b0a6      	sub	sp, #152	; 0x98
    4ac6:	4605      	mov	r5, r0
    4ac8:	460e      	mov	r6, r1
    4aca:	2400      	movs	r4, #0
    4acc:	9423      	str	r4, [sp, #140]	; 0x8c
    4ace:	9424      	str	r4, [sp, #144]	; 0x90
    4ad0:	9425      	str	r4, [sp, #148]	; 0x94
    4ad2:	2280      	movs	r2, #128	; 0x80
    4ad4:	4621      	mov	r1, r4
    4ad6:	a803      	add	r0, sp, #12
    4ad8:	f007 f82d 	bl	bb36 <memset>
    4adc:	a823      	add	r0, sp, #140	; 0x8c
    4ade:	f7ff ffe9 	bl	4ab4 <jsmn_init>
    4ae2:	2308      	movs	r3, #8
    4ae4:	9300      	str	r3, [sp, #0]
    4ae6:	ab03      	add	r3, sp, #12
    4ae8:	4632      	mov	r2, r6
    4aea:	4629      	mov	r1, r5
    4aec:	a823      	add	r0, sp, #140	; 0x8c
    4aee:	f7ff fe79 	bl	47e4 <jsmn_parse>
    4af2:	e001      	b.n	4af8 <console_process_rx_json+0x36>
    4af4:	3401      	adds	r4, #1
    4af6:	b2e4      	uxtb	r4, r4
    4af8:	4622      	mov	r2, r4
    4afa:	ab26      	add	r3, sp, #152	; 0x98
    4afc:	eb03 1304 	add.w	r3, r3, r4, lsl #4
    4b00:	f813 3c8c 	ldrb.w	r3, [r3, #-140]
    4b04:	b363      	cbz	r3, 4b60 <console_process_rx_json+0x9e>
    4b06:	2c07      	cmp	r4, #7
    4b08:	d82a      	bhi.n	4b60 <console_process_rx_json+0x9e>
    4b0a:	2b01      	cmp	r3, #1
    4b0c:	d0f2      	beq.n	4af4 <console_process_rx_json+0x32>
    4b0e:	2b03      	cmp	r3, #3
    4b10:	d002      	beq.n	4b18 <console_process_rx_json+0x56>
    4b12:	3401      	adds	r4, #1
    4b14:	b2e4      	uxtb	r4, r4
    4b16:	e7ef      	b.n	4af8 <console_process_rx_json+0x36>
    4b18:	ab26      	add	r3, sp, #152	; 0x98
    4b1a:	eb03 1202 	add.w	r2, r3, r2, lsl #4
    4b1e:	f852 3c88 	ldr.w	r3, [r2, #-136]
    4b22:	5ceb      	ldrb	r3, [r5, r3]
    4b24:	2b42      	cmp	r3, #66	; 0x42
    4b26:	d016      	beq.n	4b56 <console_process_rx_json+0x94>
    4b28:	2b43      	cmp	r3, #67	; 0x43
    4b2a:	d116      	bne.n	4b5a <console_process_rx_json+0x98>
    4b2c:	3401      	adds	r4, #1
    4b2e:	b2e4      	uxtb	r4, r4
    4b30:	ab26      	add	r3, sp, #152	; 0x98
    4b32:	eb03 1304 	add.w	r3, r3, r4, lsl #4
    4b36:	f853 0c88 	ldr.w	r0, [r3, #-136]
    4b3a:	220a      	movs	r2, #10
    4b3c:	2100      	movs	r1, #0
    4b3e:	4428      	add	r0, r5
    4b40:	f007 f884 	bl	bc4c <strtol>
    4b44:	b2c0      	uxtb	r0, r0
    4b46:	f1a0 030b 	sub.w	r3, r0, #11
    4b4a:	b2db      	uxtb	r3, r3
    4b4c:	2b0f      	cmp	r3, #15
    4b4e:	d804      	bhi.n	4b5a <console_process_rx_json+0x98>
    4b50:	f001 fee6 	bl	6920 <HAL_SetRadioChannel>
    4b54:	e001      	b.n	4b5a <console_process_rx_json+0x98>
    4b56:	f001 ffcb 	bl	6af0 <BSP_RebootInBootloader>
    4b5a:	3401      	adds	r4, #1
    4b5c:	b2e4      	uxtb	r4, r4
    4b5e:	e7cb      	b.n	4af8 <console_process_rx_json+0x36>
    4b60:	b026      	add	sp, #152	; 0x98
    4b62:	bd70      	pop	{r4, r5, r6, pc}

00004b64 <console_serialize_json>:
    4b64:	b508      	push	{r3, lr}
    4b66:	4b16      	ldr	r3, [pc, #88]	; (4bc0 <console_serialize_json+0x5c>)
    4b68:	781b      	ldrb	r3, [r3, #0]
    4b6a:	b113      	cbz	r3, 4b72 <console_serialize_json+0xe>
    4b6c:	2b01      	cmp	r3, #1
    4b6e:	d00c      	beq.n	4b8a <console_serialize_json+0x26>
    4b70:	bd08      	pop	{r3, pc}
    4b72:	287b      	cmp	r0, #123	; 0x7b
    4b74:	d1fc      	bne.n	4b70 <console_serialize_json+0xc>
    4b76:	4a13      	ldr	r2, [pc, #76]	; (4bc4 <console_serialize_json+0x60>)
    4b78:	2300      	movs	r3, #0
    4b7a:	7013      	strb	r3, [r2, #0]
    4b7c:	2301      	movs	r3, #1
    4b7e:	7013      	strb	r3, [r2, #0]
    4b80:	4a11      	ldr	r2, [pc, #68]	; (4bc8 <console_serialize_json+0x64>)
    4b82:	7010      	strb	r0, [r2, #0]
    4b84:	4a0e      	ldr	r2, [pc, #56]	; (4bc0 <console_serialize_json+0x5c>)
    4b86:	7013      	strb	r3, [r2, #0]
    4b88:	e7f2      	b.n	4b70 <console_serialize_json+0xc>
    4b8a:	4a0e      	ldr	r2, [pc, #56]	; (4bc4 <console_serialize_json+0x60>)
    4b8c:	7813      	ldrb	r3, [r2, #0]
    4b8e:	1c59      	adds	r1, r3, #1
    4b90:	b2c9      	uxtb	r1, r1
    4b92:	7011      	strb	r1, [r2, #0]
    4b94:	4a0c      	ldr	r2, [pc, #48]	; (4bc8 <console_serialize_json+0x64>)
    4b96:	54d0      	strb	r0, [r2, r3]
    4b98:	280d      	cmp	r0, #13
    4b9a:	d007      	beq.n	4bac <console_serialize_json+0x48>
    4b9c:	290f      	cmp	r1, #15
    4b9e:	d9e7      	bls.n	4b70 <console_serialize_json+0xc>
    4ba0:	2300      	movs	r3, #0
    4ba2:	4a08      	ldr	r2, [pc, #32]	; (4bc4 <console_serialize_json+0x60>)
    4ba4:	7013      	strb	r3, [r2, #0]
    4ba6:	4a06      	ldr	r2, [pc, #24]	; (4bc0 <console_serialize_json+0x5c>)
    4ba8:	7013      	strb	r3, [r2, #0]
    4baa:	e7e1      	b.n	4b70 <console_serialize_json+0xc>
    4bac:	4610      	mov	r0, r2
    4bae:	f7ff ff88 	bl	4ac2 <console_process_rx_json>
    4bb2:	2300      	movs	r3, #0
    4bb4:	4a03      	ldr	r2, [pc, #12]	; (4bc4 <console_serialize_json+0x60>)
    4bb6:	7013      	strb	r3, [r2, #0]
    4bb8:	4a01      	ldr	r2, [pc, #4]	; (4bc0 <console_serialize_json+0x5c>)
    4bba:	7013      	strb	r3, [r2, #0]
    4bbc:	e7d8      	b.n	4b70 <console_serialize_json+0xc>
    4bbe:	bf00      	nop
    4bc0:	20000289 	.word	0x20000289
    4bc4:	20000288 	.word	0x20000288
    4bc8:	20000278 	.word	0x20000278

00004bcc <Console_Write>:
    4bcc:	b538      	push	{r3, r4, r5, lr}
    4bce:	4604      	mov	r4, r0
    4bd0:	460d      	mov	r5, r1
    4bd2:	e005      	b.n	4be0 <Console_Write+0x14>
    4bd4:	f814 0b01 	ldrb.w	r0, [r4], #1
    4bd8:	f001 ff14 	bl	6a04 <HAL_Console_Tx_Byte>
    4bdc:	3d01      	subs	r5, #1
    4bde:	b2ad      	uxth	r5, r5
    4be0:	2d00      	cmp	r5, #0
    4be2:	d1f7      	bne.n	4bd4 <Console_Write+0x8>
    4be4:	bd38      	pop	{r3, r4, r5, pc}
	...

00004be8 <Console_RxByte>:
    4be8:	4a06      	ldr	r2, [pc, #24]	; (4c04 <Console_RxByte+0x1c>)
    4bea:	7813      	ldrb	r3, [r2, #0]
    4bec:	4906      	ldr	r1, [pc, #24]	; (4c08 <Console_RxByte+0x20>)
    4bee:	54c8      	strb	r0, [r1, r3]
    4bf0:	3301      	adds	r3, #1
    4bf2:	b2db      	uxtb	r3, r3
    4bf4:	7013      	strb	r3, [r2, #0]
    4bf6:	2b0f      	cmp	r3, #15
    4bf8:	d902      	bls.n	4c00 <Console_RxByte+0x18>
    4bfa:	4613      	mov	r3, r2
    4bfc:	2200      	movs	r2, #0
    4bfe:	701a      	strb	r2, [r3, #0]
    4c00:	4770      	bx	lr
    4c02:	bf00      	nop
    4c04:	2000049c 	.word	0x2000049c
    4c08:	2000048c 	.word	0x2000048c

00004c0c <Console_Process_Rx>:
    4c0c:	b508      	push	{r3, lr}
    4c0e:	4b0b      	ldr	r3, [pc, #44]	; (4c3c <Console_Process_Rx+0x30>)
    4c10:	781a      	ldrb	r2, [r3, #0]
    4c12:	4b0b      	ldr	r3, [pc, #44]	; (4c40 <Console_Process_Rx+0x34>)
    4c14:	781b      	ldrb	r3, [r3, #0]
    4c16:	429a      	cmp	r2, r3
    4c18:	d00e      	beq.n	4c38 <Console_Process_Rx+0x2c>
    4c1a:	4a0a      	ldr	r2, [pc, #40]	; (4c44 <Console_Process_Rx+0x38>)
    4c1c:	5cd0      	ldrb	r0, [r2, r3]
    4c1e:	f7ff ffa1 	bl	4b64 <console_serialize_json>
    4c22:	4a07      	ldr	r2, [pc, #28]	; (4c40 <Console_Process_Rx+0x34>)
    4c24:	7813      	ldrb	r3, [r2, #0]
    4c26:	3301      	adds	r3, #1
    4c28:	b2db      	uxtb	r3, r3
    4c2a:	7013      	strb	r3, [r2, #0]
    4c2c:	2b0f      	cmp	r3, #15
    4c2e:	d9ee      	bls.n	4c0e <Console_Process_Rx+0x2>
    4c30:	4613      	mov	r3, r2
    4c32:	2200      	movs	r2, #0
    4c34:	701a      	strb	r2, [r3, #0]
    4c36:	e7ea      	b.n	4c0e <Console_Process_Rx+0x2>
    4c38:	bd08      	pop	{r3, pc}
    4c3a:	bf00      	nop
    4c3c:	2000049c 	.word	0x2000049c
    4c40:	2000049d 	.word	0x2000049d
    4c44:	2000048c 	.word	0x2000048c

00004c48 <Console_PhyToJSONV2>:
    4c48:	e92d 43f0 	stmdb	sp!, {r4, r5, r6, r7, r8, r9, lr}
    4c4c:	b087      	sub	sp, #28
    4c4e:	4605      	mov	r5, r0
    4c50:	2600      	movs	r6, #0
    4c52:	f8ad 6016 	strh.w	r6, [sp, #22]
    4c56:	4c55      	ldr	r4, [pc, #340]	; (4dac <Console_PhyToJSONV2+0x164>)
    4c58:	f44f 7200 	mov.w	r2, #512	; 0x200
    4c5c:	4631      	mov	r1, r6
    4c5e:	4620      	mov	r0, r4
    4c60:	f006 ff69 	bl	bb36 <memset>
    4c64:	f8bd 3016 	ldrh.w	r3, [sp, #22]
    4c68:	1c5a      	adds	r2, r3, #1
    4c6a:	f8ad 2016 	strh.w	r2, [sp, #22]
    4c6e:	227b      	movs	r2, #123	; 0x7b
    4c70:	54e2      	strb	r2, [r4, r3]
    4c72:	f04f 0901 	mov.w	r9, #1
    4c76:	f8cd 9008 	str.w	r9, [sp, #8]
    4c7a:	f8df 8138 	ldr.w	r8, [pc, #312]	; 4db4 <Console_PhyToJSONV2+0x16c>
    4c7e:	f8cd 8004 	str.w	r8, [sp, #4]
    4c82:	2704      	movs	r7, #4
    4c84:	9700      	str	r7, [sp, #0]
    4c86:	782b      	ldrb	r3, [r5, #0]
    4c88:	224c      	movs	r2, #76	; 0x4c
    4c8a:	f10d 0116 	add.w	r1, sp, #22
    4c8e:	4620      	mov	r0, r4
    4c90:	f7ff fd72 	bl	4778 <write_json_parameter>
    4c94:	f8cd 9008 	str.w	r9, [sp, #8]
    4c98:	f8cd 8004 	str.w	r8, [sp, #4]
    4c9c:	9700      	str	r7, [sp, #0]
    4c9e:	f895 3081 	ldrb.w	r3, [r5, #129]	; 0x81
    4ca2:	2251      	movs	r2, #81	; 0x51
    4ca4:	f10d 0116 	add.w	r1, sp, #22
    4ca8:	4620      	mov	r0, r4
    4caa:	f7ff fd65 	bl	4778 <write_json_parameter>
    4cae:	f8cd 9008 	str.w	r9, [sp, #8]
    4cb2:	f8cd 8004 	str.w	r8, [sp, #4]
    4cb6:	9700      	str	r7, [sp, #0]
    4cb8:	f995 3082 	ldrsb.w	r3, [r5, #130]	; 0x82
    4cbc:	2252      	movs	r2, #82	; 0x52
    4cbe:	f10d 0116 	add.w	r1, sp, #22
    4cc2:	4620      	mov	r0, r4
    4cc4:	f7ff fd58 	bl	4778 <write_json_parameter>
    4cc8:	f8cd 9008 	str.w	r9, [sp, #8]
    4ccc:	f8cd 8004 	str.w	r8, [sp, #4]
    4cd0:	9700      	str	r7, [sp, #0]
    4cd2:	f895 3083 	ldrb.w	r3, [r5, #131]	; 0x83
    4cd6:	2243      	movs	r2, #67	; 0x43
    4cd8:	f10d 0116 	add.w	r1, sp, #22
    4cdc:	4620      	mov	r0, r4
    4cde:	f7ff fd4b 	bl	4778 <write_json_parameter>
    4ce2:	f8bd 3016 	ldrh.w	r3, [sp, #22]
    4ce6:	eb03 0209 	add.w	r2, r3, r9
    4cea:	b292      	uxth	r2, r2
    4cec:	f8ad 2016 	strh.w	r2, [sp, #22]
    4cf0:	2122      	movs	r1, #34	; 0x22
    4cf2:	54e1      	strb	r1, [r4, r3]
    4cf4:	eb02 0309 	add.w	r3, r2, r9
    4cf8:	b29b      	uxth	r3, r3
    4cfa:	f8ad 3016 	strh.w	r3, [sp, #22]
    4cfe:	2053      	movs	r0, #83	; 0x53
    4d00:	54a0      	strb	r0, [r4, r2]
    4d02:	eb03 0209 	add.w	r2, r3, r9
    4d06:	b292      	uxth	r2, r2
    4d08:	f8ad 2016 	strh.w	r2, [sp, #22]
    4d0c:	54e1      	strb	r1, [r4, r3]
    4d0e:	eb02 0309 	add.w	r3, r2, r9
    4d12:	b29b      	uxth	r3, r3
    4d14:	f8ad 3016 	strh.w	r3, [sp, #22]
    4d18:	203a      	movs	r0, #58	; 0x3a
    4d1a:	54a0      	strb	r0, [r4, r2]
    4d1c:	eb03 0209 	add.w	r2, r3, r9
    4d20:	f8ad 2016 	strh.w	r2, [sp, #22]
    4d24:	54e1      	strb	r1, [r4, r3]
    4d26:	4631      	mov	r1, r6
    4d28:	e017      	b.n	4d5a <Console_PhyToJSONV2+0x112>
    4d2a:	186b      	adds	r3, r5, r1
    4d2c:	785a      	ldrb	r2, [r3, #1]
    4d2e:	0914      	lsrs	r4, r2, #4
    4d30:	f10c 0301 	add.w	r3, ip, #1
    4d34:	b29b      	uxth	r3, r3
    4d36:	f8ad 3016 	strh.w	r3, [sp, #22]
    4d3a:	481d      	ldr	r0, [pc, #116]	; (4db0 <Console_PhyToJSONV2+0x168>)
    4d3c:	f810 e004 	ldrb.w	lr, [r0, r4]
    4d40:	4c1a      	ldr	r4, [pc, #104]	; (4dac <Console_PhyToJSONV2+0x164>)
    4d42:	f804 e00c 	strb.w	lr, [r4, ip]
    4d46:	f002 020f 	and.w	r2, r2, #15
    4d4a:	f103 0c01 	add.w	ip, r3, #1
    4d4e:	f8ad c016 	strh.w	ip, [sp, #22]
    4d52:	5c82      	ldrb	r2, [r0, r2]
    4d54:	54e2      	strb	r2, [r4, r3]
    4d56:	3101      	adds	r1, #1
    4d58:	b2c9      	uxtb	r1, r1
    4d5a:	782b      	ldrb	r3, [r5, #0]
    4d5c:	428b      	cmp	r3, r1
    4d5e:	d904      	bls.n	4d6a <Console_PhyToJSONV2+0x122>
    4d60:	f8bd c016 	ldrh.w	ip, [sp, #22]
    4d64:	f5bc 7ffb 	cmp.w	ip, #502	; 0x1f6
    4d68:	d9df      	bls.n	4d2a <Console_PhyToJSONV2+0xe2>
    4d6a:	f8bd 2016 	ldrh.w	r2, [sp, #22]
    4d6e:	1c53      	adds	r3, r2, #1
    4d70:	b29b      	uxth	r3, r3
    4d72:	f8ad 3016 	strh.w	r3, [sp, #22]
    4d76:	480d      	ldr	r0, [pc, #52]	; (4dac <Console_PhyToJSONV2+0x164>)
    4d78:	2122      	movs	r1, #34	; 0x22
    4d7a:	5481      	strb	r1, [r0, r2]
    4d7c:	1c5a      	adds	r2, r3, #1
    4d7e:	b292      	uxth	r2, r2
    4d80:	f8ad 2016 	strh.w	r2, [sp, #22]
    4d84:	217d      	movs	r1, #125	; 0x7d
    4d86:	54c1      	strb	r1, [r0, r3]
    4d88:	1c53      	adds	r3, r2, #1
    4d8a:	b29b      	uxth	r3, r3
    4d8c:	f8ad 3016 	strh.w	r3, [sp, #22]
    4d90:	210a      	movs	r1, #10
    4d92:	5481      	strb	r1, [r0, r2]
    4d94:	1c59      	adds	r1, r3, #1
    4d96:	b289      	uxth	r1, r1
    4d98:	f8ad 1016 	strh.w	r1, [sp, #22]
    4d9c:	220d      	movs	r2, #13
    4d9e:	54c2      	strb	r2, [r0, r3]
    4da0:	f7ff ff14 	bl	4bcc <Console_Write>
    4da4:	b007      	add	sp, #28
    4da6:	e8bd 83f0 	ldmia.w	sp!, {r4, r5, r6, r7, r8, r9, pc}
    4daa:	bf00      	nop
    4dac:	2000028c 	.word	0x2000028c
    4db0:	0000bccc 	.word	0x0000bccc
    4db4:	0000bcc8 	.word	0x0000bcc8

00004db8 <_out_buffer>:
    4db8:	429a      	cmp	r2, r3
    4dba:	d200      	bcs.n	4dbe <_out_buffer+0x6>
    4dbc:	5488      	strb	r0, [r1, r2]
    4dbe:	4770      	bx	lr

00004dc0 <_out_null>:
    4dc0:	4770      	bx	lr

00004dc2 <_atoi>:
    4dc2:	4601      	mov	r1, r0
    4dc4:	2000      	movs	r0, #0
    4dc6:	e007      	b.n	4dd8 <_atoi+0x16>
    4dc8:	eb00 0080 	add.w	r0, r0, r0, lsl #2
    4dcc:	1c53      	adds	r3, r2, #1
    4dce:	600b      	str	r3, [r1, #0]
    4dd0:	7813      	ldrb	r3, [r2, #0]
    4dd2:	eb03 0040 	add.w	r0, r3, r0, lsl #1
    4dd6:	3830      	subs	r0, #48	; 0x30
    4dd8:	680a      	ldr	r2, [r1, #0]
    4dda:	7813      	ldrb	r3, [r2, #0]
    4ddc:	3b30      	subs	r3, #48	; 0x30
    4dde:	b2db      	uxtb	r3, r3
    4de0:	2b09      	cmp	r3, #9
    4de2:	d9f1      	bls.n	4dc8 <_atoi+0x6>
    4de4:	4770      	bx	lr

00004de6 <_out_rev>:
    4de6:	e92d 4ff0 	stmdb	sp!, {r4, r5, r6, r7, r8, r9, sl, fp, lr}
    4dea:	b083      	sub	sp, #12
    4dec:	4605      	mov	r5, r0
    4dee:	460e      	mov	r6, r1
    4df0:	4693      	mov	fp, r2
    4df2:	461f      	mov	r7, r3
    4df4:	f8dd a030 	ldr.w	sl, [sp, #48]	; 0x30
    4df8:	9c0d      	ldr	r4, [sp, #52]	; 0x34
    4dfa:	f8dd 9038 	ldr.w	r9, [sp, #56]	; 0x38
    4dfe:	9b0f      	ldr	r3, [sp, #60]	; 0x3c
    4e00:	f013 0f03 	tst.w	r3, #3
    4e04:	d119      	bne.n	4e3a <_out_rev+0x54>
    4e06:	46a0      	mov	r8, r4
    4e08:	9201      	str	r2, [sp, #4]
    4e0a:	45c8      	cmp	r8, r9
    4e0c:	d209      	bcs.n	4e22 <_out_rev+0x3c>
    4e0e:	f102 0b01 	add.w	fp, r2, #1
    4e12:	463b      	mov	r3, r7
    4e14:	4631      	mov	r1, r6
    4e16:	2020      	movs	r0, #32
    4e18:	47a8      	blx	r5
    4e1a:	f108 0801 	add.w	r8, r8, #1
    4e1e:	465a      	mov	r2, fp
    4e20:	e7f3      	b.n	4e0a <_out_rev+0x24>
    4e22:	f8dd b004 	ldr.w	fp, [sp, #4]
    4e26:	e008      	b.n	4e3a <_out_rev+0x54>
    4e28:	3c01      	subs	r4, #1
    4e2a:	f102 0801 	add.w	r8, r2, #1
    4e2e:	463b      	mov	r3, r7
    4e30:	4631      	mov	r1, r6
    4e32:	f81a 0004 	ldrb.w	r0, [sl, r4]
    4e36:	47a8      	blx	r5
    4e38:	4642      	mov	r2, r8
    4e3a:	2c00      	cmp	r4, #0
    4e3c:	d1f4      	bne.n	4e28 <_out_rev+0x42>
    4e3e:	9b0f      	ldr	r3, [sp, #60]	; 0x3c
    4e40:	f013 0f02 	tst.w	r3, #2
    4e44:	d103      	bne.n	4e4e <_out_rev+0x68>
    4e46:	4610      	mov	r0, r2
    4e48:	b003      	add	sp, #12
    4e4a:	e8bd 8ff0 	ldmia.w	sp!, {r4, r5, r6, r7, r8, r9, sl, fp, pc}
    4e4e:	eba2 030b 	sub.w	r3, r2, fp
    4e52:	454b      	cmp	r3, r9
    4e54:	d2f7      	bcs.n	4e46 <_out_rev+0x60>
    4e56:	1c54      	adds	r4, r2, #1
    4e58:	463b      	mov	r3, r7
    4e5a:	4631      	mov	r1, r6
    4e5c:	2020      	movs	r0, #32
    4e5e:	47a8      	blx	r5
    4e60:	4622      	mov	r2, r4
    4e62:	e7f4      	b.n	4e4e <_out_rev+0x68>

00004e64 <_ntoa_format>:
    4e64:	e92d 43f0 	stmdb	sp!, {r4, r5, r6, r7, r8, r9, lr}
    4e68:	b085      	sub	sp, #20
    4e6a:	9d0c      	ldr	r5, [sp, #48]	; 0x30
    4e6c:	9c0d      	ldr	r4, [sp, #52]	; 0x34
    4e6e:	f89d 9038 	ldrb.w	r9, [sp, #56]	; 0x38
    4e72:	f8dd 803c 	ldr.w	r8, [sp, #60]	; 0x3c
    4e76:	f8dd e040 	ldr.w	lr, [sp, #64]	; 0x40
    4e7a:	9f11      	ldr	r7, [sp, #68]	; 0x44
    4e7c:	9e12      	ldr	r6, [sp, #72]	; 0x48
    4e7e:	f016 0f02 	tst.w	r6, #2
    4e82:	d121      	bne.n	4ec8 <_ntoa_format+0x64>
    4e84:	b17f      	cbz	r7, 4ea6 <_ntoa_format+0x42>
    4e86:	f016 0f01 	tst.w	r6, #1
    4e8a:	d00c      	beq.n	4ea6 <_ntoa_format+0x42>
    4e8c:	f1b9 0f00 	cmp.w	r9, #0
    4e90:	d102      	bne.n	4e98 <_ntoa_format+0x34>
    4e92:	f016 0f0c 	tst.w	r6, #12
    4e96:	d006      	beq.n	4ea6 <_ntoa_format+0x42>
    4e98:	3f01      	subs	r7, #1
    4e9a:	e004      	b.n	4ea6 <_ntoa_format+0x42>
    4e9c:	f04f 0c30 	mov.w	ip, #48	; 0x30
    4ea0:	f805 c004 	strb.w	ip, [r5, r4]
    4ea4:	3401      	adds	r4, #1
    4ea6:	4574      	cmp	r4, lr
    4ea8:	d201      	bcs.n	4eae <_ntoa_format+0x4a>
    4eaa:	2c1f      	cmp	r4, #31
    4eac:	d9f6      	bls.n	4e9c <_ntoa_format+0x38>
    4eae:	f016 0f01 	tst.w	r6, #1
    4eb2:	d009      	beq.n	4ec8 <_ntoa_format+0x64>
    4eb4:	42bc      	cmp	r4, r7
    4eb6:	d207      	bcs.n	4ec8 <_ntoa_format+0x64>
    4eb8:	2c1f      	cmp	r4, #31
    4eba:	d805      	bhi.n	4ec8 <_ntoa_format+0x64>
    4ebc:	f04f 0c30 	mov.w	ip, #48	; 0x30
    4ec0:	f805 c004 	strb.w	ip, [r5, r4]
    4ec4:	3401      	adds	r4, #1
    4ec6:	e7f2      	b.n	4eae <_ntoa_format+0x4a>
    4ec8:	f016 0f10 	tst.w	r6, #16
    4ecc:	d017      	beq.n	4efe <_ntoa_format+0x9a>
    4ece:	f416 6f80 	tst.w	r6, #1024	; 0x400
    4ed2:	d104      	bne.n	4ede <_ntoa_format+0x7a>
    4ed4:	b11c      	cbz	r4, 4ede <_ntoa_format+0x7a>
    4ed6:	4574      	cmp	r4, lr
    4ed8:	d024      	beq.n	4f24 <_ntoa_format+0xc0>
    4eda:	42bc      	cmp	r4, r7
    4edc:	d022      	beq.n	4f24 <_ntoa_format+0xc0>
    4ede:	f1b8 0f10 	cmp.w	r8, #16
    4ee2:	d02b      	beq.n	4f3c <_ntoa_format+0xd8>
    4ee4:	f1b8 0f10 	cmp.w	r8, #16
    4ee8:	d033      	beq.n	4f52 <_ntoa_format+0xee>
    4eea:	f1b8 0f02 	cmp.w	r8, #2
    4eee:	d03b      	beq.n	4f68 <_ntoa_format+0x104>
    4ef0:	2c1f      	cmp	r4, #31
    4ef2:	d804      	bhi.n	4efe <_ntoa_format+0x9a>
    4ef4:	f04f 0c30 	mov.w	ip, #48	; 0x30
    4ef8:	f805 c004 	strb.w	ip, [r5, r4]
    4efc:	3401      	adds	r4, #1
    4efe:	2c1f      	cmp	r4, #31
    4f00:	d807      	bhi.n	4f12 <_ntoa_format+0xae>
    4f02:	f1b9 0f00 	cmp.w	r9, #0
    4f06:	d037      	beq.n	4f78 <_ntoa_format+0x114>
    4f08:	f04f 0c2d 	mov.w	ip, #45	; 0x2d
    4f0c:	f805 c004 	strb.w	ip, [r5, r4]
    4f10:	3401      	adds	r4, #1
    4f12:	9603      	str	r6, [sp, #12]
    4f14:	9702      	str	r7, [sp, #8]
    4f16:	9401      	str	r4, [sp, #4]
    4f18:	9500      	str	r5, [sp, #0]
    4f1a:	f7ff ff64 	bl	4de6 <_out_rev>
    4f1e:	b005      	add	sp, #20
    4f20:	e8bd 83f0 	ldmia.w	sp!, {r4, r5, r6, r7, r8, r9, pc}
    4f24:	f1b4 0c01 	subs.w	ip, r4, #1
    4f28:	d006      	beq.n	4f38 <_ntoa_format+0xd4>
    4f2a:	f1b8 0f10 	cmp.w	r8, #16
    4f2e:	d001      	beq.n	4f34 <_ntoa_format+0xd0>
    4f30:	4664      	mov	r4, ip
    4f32:	e7d4      	b.n	4ede <_ntoa_format+0x7a>
    4f34:	3c02      	subs	r4, #2
    4f36:	e7d2      	b.n	4ede <_ntoa_format+0x7a>
    4f38:	4664      	mov	r4, ip
    4f3a:	e7d0      	b.n	4ede <_ntoa_format+0x7a>
    4f3c:	f016 0f20 	tst.w	r6, #32
    4f40:	d1d0      	bne.n	4ee4 <_ntoa_format+0x80>
    4f42:	2c1f      	cmp	r4, #31
    4f44:	d8ce      	bhi.n	4ee4 <_ntoa_format+0x80>
    4f46:	f04f 0c78 	mov.w	ip, #120	; 0x78
    4f4a:	f805 c004 	strb.w	ip, [r5, r4]
    4f4e:	3401      	adds	r4, #1
    4f50:	e7ce      	b.n	4ef0 <_ntoa_format+0x8c>
    4f52:	f016 0f20 	tst.w	r6, #32
    4f56:	d0c8      	beq.n	4eea <_ntoa_format+0x86>
    4f58:	2c1f      	cmp	r4, #31
    4f5a:	d8c6      	bhi.n	4eea <_ntoa_format+0x86>
    4f5c:	f04f 0c58 	mov.w	ip, #88	; 0x58
    4f60:	f805 c004 	strb.w	ip, [r5, r4]
    4f64:	3401      	adds	r4, #1
    4f66:	e7c3      	b.n	4ef0 <_ntoa_format+0x8c>
    4f68:	2c1f      	cmp	r4, #31
    4f6a:	d8c1      	bhi.n	4ef0 <_ntoa_format+0x8c>
    4f6c:	f04f 0c62 	mov.w	ip, #98	; 0x62
    4f70:	f805 c004 	strb.w	ip, [r5, r4]
    4f74:	3401      	adds	r4, #1
    4f76:	e7bb      	b.n	4ef0 <_ntoa_format+0x8c>
    4f78:	f016 0f04 	tst.w	r6, #4
    4f7c:	d005      	beq.n	4f8a <_ntoa_format+0x126>
    4f7e:	f04f 0c2b 	mov.w	ip, #43	; 0x2b
    4f82:	f805 c004 	strb.w	ip, [r5, r4]
    4f86:	3401      	adds	r4, #1
    4f88:	e7c3      	b.n	4f12 <_ntoa_format+0xae>
    4f8a:	f016 0f08 	tst.w	r6, #8
    4f8e:	d0c0      	beq.n	4f12 <_ntoa_format+0xae>
    4f90:	f04f 0c20 	mov.w	ip, #32
    4f94:	f805 c004 	strb.w	ip, [r5, r4]
    4f98:	3401      	adds	r4, #1
    4f9a:	e7ba      	b.n	4f12 <_ntoa_format+0xae>

00004f9c <_ntoa_long>:
    4f9c:	b5f0      	push	{r4, r5, r6, r7, lr}
    4f9e:	b091      	sub	sp, #68	; 0x44
    4fa0:	9c16      	ldr	r4, [sp, #88]	; 0x58
    4fa2:	9d18      	ldr	r5, [sp, #96]	; 0x60
    4fa4:	9e1b      	ldr	r6, [sp, #108]	; 0x6c
    4fa6:	b90c      	cbnz	r4, 4fac <_ntoa_long+0x10>
    4fa8:	f026 0610 	bic.w	r6, r6, #16
    4fac:	f416 6e80 	ands.w	lr, r6, #1024	; 0x400
    4fb0:	d016      	beq.n	4fe0 <_ntoa_long+0x44>
    4fb2:	b364      	cbz	r4, 500e <_ntoa_long+0x72>
    4fb4:	f04f 0e00 	mov.w	lr, #0
    4fb8:	e012      	b.n	4fe0 <_ntoa_long+0x44>
    4fba:	f10c 0c30 	add.w	ip, ip, #48	; 0x30
    4fbe:	fa5f fc8c 	uxtb.w	ip, ip
    4fc2:	f10e 0701 	add.w	r7, lr, #1
    4fc6:	f10e 0e40 	add.w	lr, lr, #64	; 0x40
    4fca:	44ee      	add	lr, sp
    4fcc:	f80e cc20 	strb.w	ip, [lr, #-32]
    4fd0:	fbb4 fcf5 	udiv	ip, r4, r5
    4fd4:	42ac      	cmp	r4, r5
    4fd6:	d31b      	bcc.n	5010 <_ntoa_long+0x74>
    4fd8:	2f1f      	cmp	r7, #31
    4fda:	d819      	bhi.n	5010 <_ntoa_long+0x74>
    4fdc:	46be      	mov	lr, r7
    4fde:	4664      	mov	r4, ip
    4fe0:	fbb4 fcf5 	udiv	ip, r4, r5
    4fe4:	fb05 4c1c 	mls	ip, r5, ip, r4
    4fe8:	fa5f fc8c 	uxtb.w	ip, ip
    4fec:	f1bc 0f09 	cmp.w	ip, #9
    4ff0:	d9e3      	bls.n	4fba <_ntoa_long+0x1e>
    4ff2:	f016 0f20 	tst.w	r6, #32
    4ff6:	d008      	beq.n	500a <_ntoa_long+0x6e>
    4ff8:	2741      	movs	r7, #65	; 0x41
    4ffa:	44bc      	add	ip, r7
    4ffc:	fa5f fc8c 	uxtb.w	ip, ip
    5000:	f1ac 0c0a 	sub.w	ip, ip, #10
    5004:	fa5f fc8c 	uxtb.w	ip, ip
    5008:	e7db      	b.n	4fc2 <_ntoa_long+0x26>
    500a:	2761      	movs	r7, #97	; 0x61
    500c:	e7f5      	b.n	4ffa <_ntoa_long+0x5e>
    500e:	4627      	mov	r7, r4
    5010:	9606      	str	r6, [sp, #24]
    5012:	9c1a      	ldr	r4, [sp, #104]	; 0x68
    5014:	9405      	str	r4, [sp, #20]
    5016:	9c19      	ldr	r4, [sp, #100]	; 0x64
    5018:	9404      	str	r4, [sp, #16]
    501a:	9503      	str	r5, [sp, #12]
    501c:	f89d 405c 	ldrb.w	r4, [sp, #92]	; 0x5c
    5020:	9402      	str	r4, [sp, #8]
    5022:	9701      	str	r7, [sp, #4]
    5024:	ac08      	add	r4, sp, #32
    5026:	9400      	str	r4, [sp, #0]
    5028:	f7ff ff1c 	bl	4e64 <_ntoa_format>
    502c:	b011      	add	sp, #68	; 0x44
    502e:	bdf0      	pop	{r4, r5, r6, r7, pc}

00005030 <_ntoa_long_long>:
    5030:	e92d 4ff0 	stmdb	sp!, {r4, r5, r6, r7, r8, r9, sl, fp, lr}
    5034:	b095      	sub	sp, #84	; 0x54
    5036:	9009      	str	r0, [sp, #36]	; 0x24
    5038:	910a      	str	r1, [sp, #40]	; 0x28
    503a:	920b      	str	r2, [sp, #44]	; 0x2c
    503c:	469b      	mov	fp, r3
    503e:	9d1e      	ldr	r5, [sp, #120]	; 0x78
    5040:	9e1f      	ldr	r6, [sp, #124]	; 0x7c
    5042:	9f22      	ldr	r7, [sp, #136]	; 0x88
    5044:	f8dd 808c 	ldr.w	r8, [sp, #140]	; 0x8c
    5048:	f8dd a098 	ldr.w	sl, [sp, #152]	; 0x98
    504c:	ea55 0306 	orrs.w	r3, r5, r6
    5050:	d101      	bne.n	5056 <_ntoa_long_long+0x26>
    5052:	f02a 0a10 	bic.w	sl, sl, #16
    5056:	f41a 6480 	ands.w	r4, sl, #1024	; 0x400
    505a:	d01f      	beq.n	509c <_ntoa_long_long+0x6c>
    505c:	ea55 0306 	orrs.w	r3, r5, r6
    5060:	d030      	beq.n	50c4 <_ntoa_long_long+0x94>
    5062:	2400      	movs	r4, #0
    5064:	e01a      	b.n	509c <_ntoa_long_long+0x6c>
    5066:	f103 0230 	add.w	r2, r3, #48	; 0x30
    506a:	b2d2      	uxtb	r2, r2
    506c:	f104 0901 	add.w	r9, r4, #1
    5070:	f104 0350 	add.w	r3, r4, #80	; 0x50
    5074:	eb0d 0403 	add.w	r4, sp, r3
    5078:	f804 2c20 	strb.w	r2, [r4, #-32]
    507c:	463a      	mov	r2, r7
    507e:	4643      	mov	r3, r8
    5080:	4628      	mov	r0, r5
    5082:	4631      	mov	r1, r6
    5084:	f006 fbba 	bl	b7fc <__aeabi_uldivmod>
    5088:	42bd      	cmp	r5, r7
    508a:	eb76 0308 	sbcs.w	r3, r6, r8
    508e:	d31b      	bcc.n	50c8 <_ntoa_long_long+0x98>
    5090:	f1b9 0f1f 	cmp.w	r9, #31
    5094:	d818      	bhi.n	50c8 <_ntoa_long_long+0x98>
    5096:	464c      	mov	r4, r9
    5098:	4605      	mov	r5, r0
    509a:	460e      	mov	r6, r1
    509c:	463a      	mov	r2, r7
    509e:	4643      	mov	r3, r8
    50a0:	4628      	mov	r0, r5
    50a2:	4631      	mov	r1, r6
    50a4:	f006 fbaa 	bl	b7fc <__aeabi_uldivmod>
    50a8:	b2d3      	uxtb	r3, r2
    50aa:	2b09      	cmp	r3, #9
    50ac:	d9db      	bls.n	5066 <_ntoa_long_long+0x36>
    50ae:	f01a 0f20 	tst.w	sl, #32
    50b2:	d005      	beq.n	50c0 <_ntoa_long_long+0x90>
    50b4:	2241      	movs	r2, #65	; 0x41
    50b6:	441a      	add	r2, r3
    50b8:	b2d2      	uxtb	r2, r2
    50ba:	3a0a      	subs	r2, #10
    50bc:	b2d2      	uxtb	r2, r2
    50be:	e7d5      	b.n	506c <_ntoa_long_long+0x3c>
    50c0:	2261      	movs	r2, #97	; 0x61
    50c2:	e7f8      	b.n	50b6 <_ntoa_long_long+0x86>
    50c4:	f04f 0900 	mov.w	r9, #0
    50c8:	f8cd a018 	str.w	sl, [sp, #24]
    50cc:	9b25      	ldr	r3, [sp, #148]	; 0x94
    50ce:	9305      	str	r3, [sp, #20]
    50d0:	9b24      	ldr	r3, [sp, #144]	; 0x90
    50d2:	9304      	str	r3, [sp, #16]
    50d4:	9703      	str	r7, [sp, #12]
    50d6:	f89d 3080 	ldrb.w	r3, [sp, #128]	; 0x80
    50da:	9302      	str	r3, [sp, #8]
    50dc:	f8cd 9004 	str.w	r9, [sp, #4]
    50e0:	ab0c      	add	r3, sp, #48	; 0x30
    50e2:	9300      	str	r3, [sp, #0]
    50e4:	465b      	mov	r3, fp
    50e6:	9a0b      	ldr	r2, [sp, #44]	; 0x2c
    50e8:	990a      	ldr	r1, [sp, #40]	; 0x28
    50ea:	9809      	ldr	r0, [sp, #36]	; 0x24
    50ec:	f7ff feba 	bl	4e64 <_ntoa_format>
    50f0:	b015      	add	sp, #84	; 0x54
    50f2:	e8bd 8ff0 	ldmia.w	sp!, {r4, r5, r6, r7, r8, r9, sl, fp, pc}
	...

000050f8 <_vsnprintf>:
    50f8:	e92d 4ff0 	stmdb	sp!, {r4, r5, r6, r7, r8, r9, sl, fp, lr}
    50fc:	b08f      	sub	sp, #60	; 0x3c
    50fe:	4607      	mov	r7, r0
    5100:	4616      	mov	r6, r2
    5102:	930d      	str	r3, [sp, #52]	; 0x34
    5104:	468b      	mov	fp, r1
    5106:	2900      	cmp	r1, #0
    5108:	f000 82d8 	beq.w	56bc <_vsnprintf+0x5c4>
    510c:	2400      	movs	r4, #0
    510e:	9b0d      	ldr	r3, [sp, #52]	; 0x34
    5110:	7818      	ldrb	r0, [r3, #0]
    5112:	2800      	cmp	r0, #0
    5114:	f000 82d4 	beq.w	56c0 <_vsnprintf+0x5c8>
    5118:	2825      	cmp	r0, #37	; 0x25
    511a:	d009      	beq.n	5130 <_vsnprintf+0x38>
    511c:	1c65      	adds	r5, r4, #1
    511e:	4633      	mov	r3, r6
    5120:	4622      	mov	r2, r4
    5122:	4659      	mov	r1, fp
    5124:	47b8      	blx	r7
    5126:	9b0d      	ldr	r3, [sp, #52]	; 0x34
    5128:	3301      	adds	r3, #1
    512a:	930d      	str	r3, [sp, #52]	; 0x34
    512c:	462c      	mov	r4, r5
    512e:	e7ee      	b.n	510e <_vsnprintf+0x16>
    5130:	3301      	adds	r3, #1
    5132:	930d      	str	r3, [sp, #52]	; 0x34
    5134:	2500      	movs	r5, #0
    5136:	9b0d      	ldr	r3, [sp, #52]	; 0x34
    5138:	7819      	ldrb	r1, [r3, #0]
    513a:	f1a1 0220 	sub.w	r2, r1, #32
    513e:	2a10      	cmp	r2, #16
    5140:	d80a      	bhi.n	5158 <_vsnprintf+0x60>
    5142:	e8df f002 	tbb	[pc, r2]
    5146:	0938      	.short	0x0938
    5148:	09093d09 	.word	0x09093d09
    514c:	09090909 	.word	0x09090909
    5150:	2e093309 	.word	0x2e093309
    5154:	0909      	.short	0x0909
    5156:	29          	.byte	0x29
    5157:	00          	.byte	0x00
    5158:	f1a1 0330 	sub.w	r3, r1, #48	; 0x30
    515c:	b2db      	uxtb	r3, r3
    515e:	2b09      	cmp	r3, #9
    5160:	d933      	bls.n	51ca <_vsnprintf+0xd2>
    5162:	292a      	cmp	r1, #42	; 0x2a
    5164:	d036      	beq.n	51d4 <_vsnprintf+0xdc>
    5166:	2300      	movs	r3, #0
    5168:	930a      	str	r3, [sp, #40]	; 0x28
    516a:	9b0d      	ldr	r3, [sp, #52]	; 0x34
    516c:	781a      	ldrb	r2, [r3, #0]
    516e:	2a2e      	cmp	r2, #46	; 0x2e
    5170:	d040      	beq.n	51f4 <_vsnprintf+0xfc>
    5172:	f04f 0a00 	mov.w	sl, #0
    5176:	9a0d      	ldr	r2, [sp, #52]	; 0x34
    5178:	7813      	ldrb	r3, [r2, #0]
    517a:	3b68      	subs	r3, #104	; 0x68
    517c:	2b12      	cmp	r3, #18
    517e:	d877      	bhi.n	5270 <_vsnprintf+0x178>
    5180:	e8df f003 	tbb	[pc, r3]
    5184:	76727664 	.word	0x76727664
    5188:	76767656 	.word	0x76767656
    518c:	76767676 	.word	0x76767676
    5190:	76767676 	.word	0x76767676
    5194:	7676      	.short	0x7676
    5196:	d3          	.byte	0xd3
    5197:	00          	.byte	0x00
    5198:	f045 0501 	orr.w	r5, r5, #1
    519c:	3301      	adds	r3, #1
    519e:	930d      	str	r3, [sp, #52]	; 0x34
    51a0:	e7c9      	b.n	5136 <_vsnprintf+0x3e>
    51a2:	f045 0502 	orr.w	r5, r5, #2
    51a6:	3301      	adds	r3, #1
    51a8:	930d      	str	r3, [sp, #52]	; 0x34
    51aa:	e7c4      	b.n	5136 <_vsnprintf+0x3e>
    51ac:	f045 0504 	orr.w	r5, r5, #4
    51b0:	3301      	adds	r3, #1
    51b2:	930d      	str	r3, [sp, #52]	; 0x34
    51b4:	e7bf      	b.n	5136 <_vsnprintf+0x3e>
    51b6:	f045 0508 	orr.w	r5, r5, #8
    51ba:	3301      	adds	r3, #1
    51bc:	930d      	str	r3, [sp, #52]	; 0x34
    51be:	e7ba      	b.n	5136 <_vsnprintf+0x3e>
    51c0:	f045 0510 	orr.w	r5, r5, #16
    51c4:	3301      	adds	r3, #1
    51c6:	930d      	str	r3, [sp, #52]	; 0x34
    51c8:	e7b5      	b.n	5136 <_vsnprintf+0x3e>
    51ca:	a80d      	add	r0, sp, #52	; 0x34
    51cc:	f7ff fdf9 	bl	4dc2 <_atoi>
    51d0:	900a      	str	r0, [sp, #40]	; 0x28
    51d2:	e7ca      	b.n	516a <_vsnprintf+0x72>
    51d4:	9b18      	ldr	r3, [sp, #96]	; 0x60
    51d6:	1d1a      	adds	r2, r3, #4
    51d8:	9218      	str	r2, [sp, #96]	; 0x60
    51da:	6818      	ldr	r0, [r3, #0]
    51dc:	2800      	cmp	r0, #0
    51de:	db04      	blt.n	51ea <_vsnprintf+0xf2>
    51e0:	900a      	str	r0, [sp, #40]	; 0x28
    51e2:	9b0d      	ldr	r3, [sp, #52]	; 0x34
    51e4:	3301      	adds	r3, #1
    51e6:	930d      	str	r3, [sp, #52]	; 0x34
    51e8:	e7bf      	b.n	516a <_vsnprintf+0x72>
    51ea:	f045 0502 	orr.w	r5, r5, #2
    51ee:	4243      	negs	r3, r0
    51f0:	930a      	str	r3, [sp, #40]	; 0x28
    51f2:	e7f6      	b.n	51e2 <_vsnprintf+0xea>
    51f4:	f445 6580 	orr.w	r5, r5, #1024	; 0x400
    51f8:	1c5a      	adds	r2, r3, #1
    51fa:	920d      	str	r2, [sp, #52]	; 0x34
    51fc:	785a      	ldrb	r2, [r3, #1]
    51fe:	f1a2 0330 	sub.w	r3, r2, #48	; 0x30
    5202:	b2db      	uxtb	r3, r3
    5204:	2b09      	cmp	r3, #9
    5206:	d904      	bls.n	5212 <_vsnprintf+0x11a>
    5208:	2a2a      	cmp	r2, #42	; 0x2a
    520a:	d007      	beq.n	521c <_vsnprintf+0x124>
    520c:	f04f 0a00 	mov.w	sl, #0
    5210:	e7b1      	b.n	5176 <_vsnprintf+0x7e>
    5212:	a80d      	add	r0, sp, #52	; 0x34
    5214:	f7ff fdd5 	bl	4dc2 <_atoi>
    5218:	4682      	mov	sl, r0
    521a:	e7ac      	b.n	5176 <_vsnprintf+0x7e>
    521c:	9b18      	ldr	r3, [sp, #96]	; 0x60
    521e:	1d1a      	adds	r2, r3, #4
    5220:	9218      	str	r2, [sp, #96]	; 0x60
    5222:	681b      	ldr	r3, [r3, #0]
    5224:	ea23 7ae3 	bic.w	sl, r3, r3, asr #31
    5228:	9b0d      	ldr	r3, [sp, #52]	; 0x34
    522a:	3301      	adds	r3, #1
    522c:	930d      	str	r3, [sp, #52]	; 0x34
    522e:	e7a2      	b.n	5176 <_vsnprintf+0x7e>
    5230:	f445 7180 	orr.w	r1, r5, #256	; 0x100
    5234:	1c53      	adds	r3, r2, #1
    5236:	930d      	str	r3, [sp, #52]	; 0x34
    5238:	7852      	ldrb	r2, [r2, #1]
    523a:	2a6c      	cmp	r2, #108	; 0x6c
    523c:	d001      	beq.n	5242 <_vsnprintf+0x14a>
    523e:	460d      	mov	r5, r1
    5240:	e016      	b.n	5270 <_vsnprintf+0x178>
    5242:	f445 7540 	orr.w	r5, r5, #768	; 0x300
    5246:	3301      	adds	r3, #1
    5248:	930d      	str	r3, [sp, #52]	; 0x34
    524a:	e011      	b.n	5270 <_vsnprintf+0x178>
    524c:	f045 0180 	orr.w	r1, r5, #128	; 0x80
    5250:	1c53      	adds	r3, r2, #1
    5252:	930d      	str	r3, [sp, #52]	; 0x34
    5254:	7852      	ldrb	r2, [r2, #1]
    5256:	2a68      	cmp	r2, #104	; 0x68
    5258:	d001      	beq.n	525e <_vsnprintf+0x166>
    525a:	460d      	mov	r5, r1
    525c:	e008      	b.n	5270 <_vsnprintf+0x178>
    525e:	f045 05c0 	orr.w	r5, r5, #192	; 0xc0
    5262:	3301      	adds	r3, #1
    5264:	930d      	str	r3, [sp, #52]	; 0x34
    5266:	e003      	b.n	5270 <_vsnprintf+0x178>
    5268:	f445 7500 	orr.w	r5, r5, #512	; 0x200
    526c:	3201      	adds	r2, #1
    526e:	920d      	str	r2, [sp, #52]	; 0x34
    5270:	9b0d      	ldr	r3, [sp, #52]	; 0x34
    5272:	7818      	ldrb	r0, [r3, #0]
    5274:	f1a0 0325 	sub.w	r3, r0, #37	; 0x25
    5278:	2b53      	cmp	r3, #83	; 0x53
    527a:	f200 8215 	bhi.w	56a8 <_vsnprintf+0x5b0>
    527e:	e8df f013 	tbh	[pc, r3, lsl #1]
    5282:	0208      	.short	0x0208
    5284:	02130213 	.word	0x02130213
    5288:	02130213 	.word	0x02130213
    528c:	02130213 	.word	0x02130213
    5290:	02130213 	.word	0x02130213
    5294:	02130213 	.word	0x02130213
    5298:	02130213 	.word	0x02130213
    529c:	02130213 	.word	0x02130213
    52a0:	02130213 	.word	0x02130213
    52a4:	02130213 	.word	0x02130213
    52a8:	02130213 	.word	0x02130213
    52ac:	02130213 	.word	0x02130213
    52b0:	02130213 	.word	0x02130213
    52b4:	02130213 	.word	0x02130213
    52b8:	02130213 	.word	0x02130213
    52bc:	02130213 	.word	0x02130213
    52c0:	02130213 	.word	0x02130213
    52c4:	02130213 	.word	0x02130213
    52c8:	02130213 	.word	0x02130213
    52cc:	02130213 	.word	0x02130213
    52d0:	02130213 	.word	0x02130213
    52d4:	02130213 	.word	0x02130213
    52d8:	02130213 	.word	0x02130213
    52dc:	02130213 	.word	0x02130213
    52e0:	02130213 	.word	0x02130213
    52e4:	02130213 	.word	0x02130213
    52e8:	02130059 	.word	0x02130059
    52ec:	02130213 	.word	0x02130213
    52f0:	02130213 	.word	0x02130213
    52f4:	02130213 	.word	0x02130213
    52f8:	02130213 	.word	0x02130213
    52fc:	014f0059 	.word	0x014f0059
    5300:	02130059 	.word	0x02130059
    5304:	02130213 	.word	0x02130213
    5308:	00590213 	.word	0x00590213
    530c:	02130213 	.word	0x02130213
    5310:	02130213 	.word	0x02130213
    5314:	00590213 	.word	0x00590213
    5318:	021301ed 	.word	0x021301ed
    531c:	01880213 	.word	0x01880213
    5320:	00590213 	.word	0x00590213
    5324:	02130213 	.word	0x02130213
    5328:	0059      	.short	0x0059
    532a:	f445 7580 	orr.w	r5, r5, #256	; 0x100
    532e:	3201      	adds	r2, #1
    5330:	920d      	str	r2, [sp, #52]	; 0x34
    5332:	e79d      	b.n	5270 <_vsnprintf+0x178>
    5334:	2878      	cmp	r0, #120	; 0x78
    5336:	d009      	beq.n	534c <_vsnprintf+0x254>
    5338:	2858      	cmp	r0, #88	; 0x58
    533a:	d03a      	beq.n	53b2 <_vsnprintf+0x2ba>
    533c:	286f      	cmp	r0, #111	; 0x6f
    533e:	d03a      	beq.n	53b6 <_vsnprintf+0x2be>
    5340:	2862      	cmp	r0, #98	; 0x62
    5342:	d03a      	beq.n	53ba <_vsnprintf+0x2c2>
    5344:	f025 0510 	bic.w	r5, r5, #16
    5348:	230a      	movs	r3, #10
    534a:	e000      	b.n	534e <_vsnprintf+0x256>
    534c:	2310      	movs	r3, #16
    534e:	2858      	cmp	r0, #88	; 0x58
    5350:	d035      	beq.n	53be <_vsnprintf+0x2c6>
    5352:	2869      	cmp	r0, #105	; 0x69
    5354:	d003      	beq.n	535e <_vsnprintf+0x266>
    5356:	2864      	cmp	r0, #100	; 0x64
    5358:	d001      	beq.n	535e <_vsnprintf+0x266>
    535a:	f025 050c 	bic.w	r5, r5, #12
    535e:	f415 6f80 	tst.w	r5, #1024	; 0x400
    5362:	d001      	beq.n	5368 <_vsnprintf+0x270>
    5364:	f025 0501 	bic.w	r5, r5, #1
    5368:	2869      	cmp	r0, #105	; 0x69
    536a:	d02b      	beq.n	53c4 <_vsnprintf+0x2cc>
    536c:	2864      	cmp	r0, #100	; 0x64
    536e:	d029      	beq.n	53c4 <_vsnprintf+0x2cc>
    5370:	f415 7f00 	tst.w	r5, #512	; 0x200
    5374:	f040 8096 	bne.w	54a4 <_vsnprintf+0x3ac>
    5378:	f415 7f80 	tst.w	r5, #256	; 0x100
    537c:	f040 80ae 	bne.w	54dc <_vsnprintf+0x3e4>
    5380:	f015 0f40 	tst.w	r5, #64	; 0x40
    5384:	f000 80bf 	beq.w	5506 <_vsnprintf+0x40e>
    5388:	9a18      	ldr	r2, [sp, #96]	; 0x60
    538a:	1d11      	adds	r1, r2, #4
    538c:	9118      	str	r1, [sp, #96]	; 0x60
    538e:	7812      	ldrb	r2, [r2, #0]
    5390:	9505      	str	r5, [sp, #20]
    5392:	990a      	ldr	r1, [sp, #40]	; 0x28
    5394:	9104      	str	r1, [sp, #16]
    5396:	f8cd a00c 	str.w	sl, [sp, #12]
    539a:	9302      	str	r3, [sp, #8]
    539c:	2300      	movs	r3, #0
    539e:	9301      	str	r3, [sp, #4]
    53a0:	9200      	str	r2, [sp, #0]
    53a2:	4633      	mov	r3, r6
    53a4:	4622      	mov	r2, r4
    53a6:	4659      	mov	r1, fp
    53a8:	4638      	mov	r0, r7
    53aa:	f7ff fdf7 	bl	4f9c <_ntoa_long>
    53ae:	4604      	mov	r4, r0
    53b0:	e029      	b.n	5406 <_vsnprintf+0x30e>
    53b2:	2310      	movs	r3, #16
    53b4:	e7cb      	b.n	534e <_vsnprintf+0x256>
    53b6:	2308      	movs	r3, #8
    53b8:	e7c9      	b.n	534e <_vsnprintf+0x256>
    53ba:	2302      	movs	r3, #2
    53bc:	e7c7      	b.n	534e <_vsnprintf+0x256>
    53be:	f045 0520 	orr.w	r5, r5, #32
    53c2:	e7c6      	b.n	5352 <_vsnprintf+0x25a>
    53c4:	f415 7f00 	tst.w	r5, #512	; 0x200
    53c8:	d121      	bne.n	540e <_vsnprintf+0x316>
    53ca:	f415 7f80 	tst.w	r5, #256	; 0x100
    53ce:	d142      	bne.n	5456 <_vsnprintf+0x35e>
    53d0:	f015 0f40 	tst.w	r5, #64	; 0x40
    53d4:	d058      	beq.n	5488 <_vsnprintf+0x390>
    53d6:	9a18      	ldr	r2, [sp, #96]	; 0x60
    53d8:	1d11      	adds	r1, r2, #4
    53da:	9118      	str	r1, [sp, #96]	; 0x60
    53dc:	7812      	ldrb	r2, [r2, #0]
    53de:	ea82 71e2 	eor.w	r1, r2, r2, asr #31
    53e2:	eba1 71e2 	sub.w	r1, r1, r2, asr #31
    53e6:	9505      	str	r5, [sp, #20]
    53e8:	980a      	ldr	r0, [sp, #40]	; 0x28
    53ea:	9004      	str	r0, [sp, #16]
    53ec:	f8cd a00c 	str.w	sl, [sp, #12]
    53f0:	9302      	str	r3, [sp, #8]
    53f2:	0fd2      	lsrs	r2, r2, #31
    53f4:	9201      	str	r2, [sp, #4]
    53f6:	9100      	str	r1, [sp, #0]
    53f8:	4633      	mov	r3, r6
    53fa:	4622      	mov	r2, r4
    53fc:	4659      	mov	r1, fp
    53fe:	4638      	mov	r0, r7
    5400:	f7ff fdcc 	bl	4f9c <_ntoa_long>
    5404:	4604      	mov	r4, r0
    5406:	9b0d      	ldr	r3, [sp, #52]	; 0x34
    5408:	3301      	adds	r3, #1
    540a:	930d      	str	r3, [sp, #52]	; 0x34
    540c:	e67f      	b.n	510e <_vsnprintf+0x16>
    540e:	9a18      	ldr	r2, [sp, #96]	; 0x60
    5410:	3207      	adds	r2, #7
    5412:	f022 0207 	bic.w	r2, r2, #7
    5416:	f102 0108 	add.w	r1, r2, #8
    541a:	9118      	str	r1, [sp, #96]	; 0x60
    541c:	6851      	ldr	r1, [r2, #4]
    541e:	6812      	ldr	r2, [r2, #0]
    5420:	4608      	mov	r0, r1
    5422:	2900      	cmp	r1, #0
    5424:	db13      	blt.n	544e <_vsnprintf+0x356>
    5426:	9508      	str	r5, [sp, #32]
    5428:	9d0a      	ldr	r5, [sp, #40]	; 0x28
    542a:	9507      	str	r5, [sp, #28]
    542c:	f8cd a018 	str.w	sl, [sp, #24]
    5430:	9304      	str	r3, [sp, #16]
    5432:	2300      	movs	r3, #0
    5434:	9305      	str	r3, [sp, #20]
    5436:	0fc9      	lsrs	r1, r1, #31
    5438:	9102      	str	r1, [sp, #8]
    543a:	9200      	str	r2, [sp, #0]
    543c:	9001      	str	r0, [sp, #4]
    543e:	4633      	mov	r3, r6
    5440:	4622      	mov	r2, r4
    5442:	4659      	mov	r1, fp
    5444:	4638      	mov	r0, r7
    5446:	f7ff fdf3 	bl	5030 <_ntoa_long_long>
    544a:	4604      	mov	r4, r0
    544c:	e7db      	b.n	5406 <_vsnprintf+0x30e>
    544e:	4252      	negs	r2, r2
    5450:	eb61 0041 	sbc.w	r0, r1, r1, lsl #1
    5454:	e7e7      	b.n	5426 <_vsnprintf+0x32e>
    5456:	9a18      	ldr	r2, [sp, #96]	; 0x60
    5458:	1d11      	adds	r1, r2, #4
    545a:	9118      	str	r1, [sp, #96]	; 0x60
    545c:	6812      	ldr	r2, [r2, #0]
    545e:	ea82 71e2 	eor.w	r1, r2, r2, asr #31
    5462:	eba1 71e2 	sub.w	r1, r1, r2, asr #31
    5466:	9505      	str	r5, [sp, #20]
    5468:	980a      	ldr	r0, [sp, #40]	; 0x28
    546a:	9004      	str	r0, [sp, #16]
    546c:	f8cd a00c 	str.w	sl, [sp, #12]
    5470:	9302      	str	r3, [sp, #8]
    5472:	0fd2      	lsrs	r2, r2, #31
    5474:	9201      	str	r2, [sp, #4]
    5476:	9100      	str	r1, [sp, #0]
    5478:	4633      	mov	r3, r6
    547a:	4622      	mov	r2, r4
    547c:	4659      	mov	r1, fp
    547e:	4638      	mov	r0, r7
    5480:	f7ff fd8c 	bl	4f9c <_ntoa_long>
    5484:	4604      	mov	r4, r0
    5486:	e7be      	b.n	5406 <_vsnprintf+0x30e>
    5488:	f015 0f80 	tst.w	r5, #128	; 0x80
    548c:	d005      	beq.n	549a <_vsnprintf+0x3a2>
    548e:	9a18      	ldr	r2, [sp, #96]	; 0x60
    5490:	1d11      	adds	r1, r2, #4
    5492:	9118      	str	r1, [sp, #96]	; 0x60
    5494:	f9b2 2000 	ldrsh.w	r2, [r2]
    5498:	e7a1      	b.n	53de <_vsnprintf+0x2e6>
    549a:	9a18      	ldr	r2, [sp, #96]	; 0x60
    549c:	1d11      	adds	r1, r2, #4
    549e:	9118      	str	r1, [sp, #96]	; 0x60
    54a0:	6812      	ldr	r2, [r2, #0]
    54a2:	e79c      	b.n	53de <_vsnprintf+0x2e6>
    54a4:	9a18      	ldr	r2, [sp, #96]	; 0x60
    54a6:	3207      	adds	r2, #7
    54a8:	f022 0207 	bic.w	r2, r2, #7
    54ac:	f102 0108 	add.w	r1, r2, #8
    54b0:	9118      	str	r1, [sp, #96]	; 0x60
    54b2:	9508      	str	r5, [sp, #32]
    54b4:	990a      	ldr	r1, [sp, #40]	; 0x28
    54b6:	9107      	str	r1, [sp, #28]
    54b8:	f8cd a018 	str.w	sl, [sp, #24]
    54bc:	2100      	movs	r1, #0
    54be:	9304      	str	r3, [sp, #16]
    54c0:	9105      	str	r1, [sp, #20]
    54c2:	9102      	str	r1, [sp, #8]
    54c4:	e9d2 2300 	ldrd	r2, r3, [r2]
    54c8:	e9cd 2300 	strd	r2, r3, [sp]
    54cc:	4633      	mov	r3, r6
    54ce:	4622      	mov	r2, r4
    54d0:	4659      	mov	r1, fp
    54d2:	4638      	mov	r0, r7
    54d4:	f7ff fdac 	bl	5030 <_ntoa_long_long>
    54d8:	4604      	mov	r4, r0
    54da:	e794      	b.n	5406 <_vsnprintf+0x30e>
    54dc:	9a18      	ldr	r2, [sp, #96]	; 0x60
    54de:	1d11      	adds	r1, r2, #4
    54e0:	9118      	str	r1, [sp, #96]	; 0x60
    54e2:	9505      	str	r5, [sp, #20]
    54e4:	990a      	ldr	r1, [sp, #40]	; 0x28
    54e6:	9104      	str	r1, [sp, #16]
    54e8:	f8cd a00c 	str.w	sl, [sp, #12]
    54ec:	9302      	str	r3, [sp, #8]
    54ee:	2300      	movs	r3, #0
    54f0:	9301      	str	r3, [sp, #4]
    54f2:	6813      	ldr	r3, [r2, #0]
    54f4:	9300      	str	r3, [sp, #0]
    54f6:	4633      	mov	r3, r6
    54f8:	4622      	mov	r2, r4
    54fa:	4659      	mov	r1, fp
    54fc:	4638      	mov	r0, r7
    54fe:	f7ff fd4d 	bl	4f9c <_ntoa_long>
    5502:	4604      	mov	r4, r0
    5504:	e77f      	b.n	5406 <_vsnprintf+0x30e>
    5506:	f015 0f80 	tst.w	r5, #128	; 0x80
    550a:	d004      	beq.n	5516 <_vsnprintf+0x41e>
    550c:	9a18      	ldr	r2, [sp, #96]	; 0x60
    550e:	1d11      	adds	r1, r2, #4
    5510:	9118      	str	r1, [sp, #96]	; 0x60
    5512:	8812      	ldrh	r2, [r2, #0]
    5514:	e73c      	b.n	5390 <_vsnprintf+0x298>
    5516:	9a18      	ldr	r2, [sp, #96]	; 0x60
    5518:	1d11      	adds	r1, r2, #4
    551a:	9118      	str	r1, [sp, #96]	; 0x60
    551c:	6812      	ldr	r2, [r2, #0]
    551e:	e737      	b.n	5390 <_vsnprintf+0x298>
    5520:	f015 0502 	ands.w	r5, r5, #2
    5524:	d01f      	beq.n	5566 <_vsnprintf+0x46e>
    5526:	f04f 0801 	mov.w	r8, #1
    552a:	9818      	ldr	r0, [sp, #96]	; 0x60
    552c:	1d03      	adds	r3, r0, #4
    552e:	9318      	str	r3, [sp, #96]	; 0x60
    5530:	f104 0901 	add.w	r9, r4, #1
    5534:	4633      	mov	r3, r6
    5536:	4622      	mov	r2, r4
    5538:	4659      	mov	r1, fp
    553a:	7800      	ldrb	r0, [r0, #0]
    553c:	47b8      	blx	r7
    553e:	b9bd      	cbnz	r5, 5570 <_vsnprintf+0x478>
    5540:	9b0d      	ldr	r3, [sp, #52]	; 0x34
    5542:	3301      	adds	r3, #1
    5544:	930d      	str	r3, [sp, #52]	; 0x34
    5546:	464c      	mov	r4, r9
    5548:	e5e1      	b.n	510e <_vsnprintf+0x16>
    554a:	f102 0901 	add.w	r9, r2, #1
    554e:	4633      	mov	r3, r6
    5550:	4659      	mov	r1, fp
    5552:	2020      	movs	r0, #32
    5554:	47b8      	blx	r7
    5556:	4643      	mov	r3, r8
    5558:	464a      	mov	r2, r9
    555a:	f103 0801 	add.w	r8, r3, #1
    555e:	459a      	cmp	sl, r3
    5560:	d8f3      	bhi.n	554a <_vsnprintf+0x452>
    5562:	4614      	mov	r4, r2
    5564:	e7e1      	b.n	552a <_vsnprintf+0x432>
    5566:	2301      	movs	r3, #1
    5568:	f8dd a028 	ldr.w	sl, [sp, #40]	; 0x28
    556c:	4622      	mov	r2, r4
    556e:	e7f4      	b.n	555a <_vsnprintf+0x462>
    5570:	464a      	mov	r2, r9
    5572:	f8dd 9028 	ldr.w	r9, [sp, #40]	; 0x28
    5576:	e006      	b.n	5586 <_vsnprintf+0x48e>
    5578:	1c55      	adds	r5, r2, #1
    557a:	4633      	mov	r3, r6
    557c:	4659      	mov	r1, fp
    557e:	2020      	movs	r0, #32
    5580:	47b8      	blx	r7
    5582:	46a0      	mov	r8, r4
    5584:	462a      	mov	r2, r5
    5586:	f108 0401 	add.w	r4, r8, #1
    558a:	45c1      	cmp	r9, r8
    558c:	d8f4      	bhi.n	5578 <_vsnprintf+0x480>
    558e:	4691      	mov	r9, r2
    5590:	e7d6      	b.n	5540 <_vsnprintf+0x448>
    5592:	9b18      	ldr	r3, [sp, #96]	; 0x60
    5594:	1d1a      	adds	r2, r3, #4
    5596:	9218      	str	r2, [sp, #96]	; 0x60
    5598:	f8d3 9000 	ldr.w	r9, [r3]
    559c:	f1ba 0f00 	cmp.w	sl, #0
    55a0:	d11e      	bne.n	55e0 <_vsnprintf+0x4e8>
    55a2:	f04f 33ff 	mov.w	r3, #4294967295	; 0xffffffff
    55a6:	46c8      	mov	r8, r9
    55a8:	e002      	b.n	55b0 <_vsnprintf+0x4b8>
    55aa:	f108 0801 	add.w	r8, r8, #1
    55ae:	4613      	mov	r3, r2
    55b0:	f898 2000 	ldrb.w	r2, [r8]
    55b4:	b112      	cbz	r2, 55bc <_vsnprintf+0x4c4>
    55b6:	1e5a      	subs	r2, r3, #1
    55b8:	2b00      	cmp	r3, #0
    55ba:	d1f6      	bne.n	55aa <_vsnprintf+0x4b2>
    55bc:	eba8 0809 	sub.w	r8, r8, r9
    55c0:	f415 6380 	ands.w	r3, r5, #1024	; 0x400
    55c4:	930b      	str	r3, [sp, #44]	; 0x2c
    55c6:	d002      	beq.n	55ce <_vsnprintf+0x4d6>
    55c8:	45d0      	cmp	r8, sl
    55ca:	bf28      	it	cs
    55cc:	46d0      	movcs	r8, sl
    55ce:	f015 0302 	ands.w	r3, r5, #2
    55d2:	930c      	str	r3, [sp, #48]	; 0x30
    55d4:	d006      	beq.n	55e4 <_vsnprintf+0x4ec>
    55d6:	4622      	mov	r2, r4
    55d8:	4654      	mov	r4, sl
    55da:	46b2      	mov	sl, r6
    55dc:	9e0b      	ldr	r6, [sp, #44]	; 0x2c
    55de:	e01d      	b.n	561c <_vsnprintf+0x524>
    55e0:	4653      	mov	r3, sl
    55e2:	e7e0      	b.n	55a6 <_vsnprintf+0x4ae>
    55e4:	4622      	mov	r2, r4
    55e6:	9c0a      	ldr	r4, [sp, #40]	; 0x28
    55e8:	4643      	mov	r3, r8
    55ea:	e007      	b.n	55fc <_vsnprintf+0x504>
    55ec:	f102 0801 	add.w	r8, r2, #1
    55f0:	4633      	mov	r3, r6
    55f2:	4659      	mov	r1, fp
    55f4:	2020      	movs	r0, #32
    55f6:	47b8      	blx	r7
    55f8:	462b      	mov	r3, r5
    55fa:	4642      	mov	r2, r8
    55fc:	1c5d      	adds	r5, r3, #1
    55fe:	429c      	cmp	r4, r3
    5600:	d8f4      	bhi.n	55ec <_vsnprintf+0x4f4>
    5602:	46a8      	mov	r8, r5
    5604:	4654      	mov	r4, sl
    5606:	46b2      	mov	sl, r6
    5608:	9e0b      	ldr	r6, [sp, #44]	; 0x2c
    560a:	e007      	b.n	561c <_vsnprintf+0x524>
    560c:	461c      	mov	r4, r3
    560e:	f109 0901 	add.w	r9, r9, #1
    5612:	1c55      	adds	r5, r2, #1
    5614:	4653      	mov	r3, sl
    5616:	4659      	mov	r1, fp
    5618:	47b8      	blx	r7
    561a:	462a      	mov	r2, r5
    561c:	f899 0000 	ldrb.w	r0, [r9]
    5620:	b120      	cbz	r0, 562c <_vsnprintf+0x534>
    5622:	2e00      	cmp	r6, #0
    5624:	d0f3      	beq.n	560e <_vsnprintf+0x516>
    5626:	1e63      	subs	r3, r4, #1
    5628:	2c00      	cmp	r4, #0
    562a:	d1ef      	bne.n	560c <_vsnprintf+0x514>
    562c:	4614      	mov	r4, r2
    562e:	4656      	mov	r6, sl
    5630:	9b0c      	ldr	r3, [sp, #48]	; 0x30
    5632:	b91b      	cbnz	r3, 563c <_vsnprintf+0x544>
    5634:	9b0d      	ldr	r3, [sp, #52]	; 0x34
    5636:	3301      	adds	r3, #1
    5638:	930d      	str	r3, [sp, #52]	; 0x34
    563a:	e568      	b.n	510e <_vsnprintf+0x16>
    563c:	f8dd 9028 	ldr.w	r9, [sp, #40]	; 0x28
    5640:	e006      	b.n	5650 <_vsnprintf+0x558>
    5642:	1c55      	adds	r5, r2, #1
    5644:	4633      	mov	r3, r6
    5646:	4659      	mov	r1, fp
    5648:	2020      	movs	r0, #32
    564a:	47b8      	blx	r7
    564c:	46a0      	mov	r8, r4
    564e:	462a      	mov	r2, r5
    5650:	f108 0401 	add.w	r4, r8, #1
    5654:	45c1      	cmp	r9, r8
    5656:	d8f4      	bhi.n	5642 <_vsnprintf+0x54a>
    5658:	4614      	mov	r4, r2
    565a:	e7eb      	b.n	5634 <_vsnprintf+0x53c>
    565c:	f045 0521 	orr.w	r5, r5, #33	; 0x21
    5660:	9b18      	ldr	r3, [sp, #96]	; 0x60
    5662:	1d1a      	adds	r2, r3, #4
    5664:	9218      	str	r2, [sp, #96]	; 0x60
    5666:	681b      	ldr	r3, [r3, #0]
    5668:	9505      	str	r5, [sp, #20]
    566a:	2208      	movs	r2, #8
    566c:	9204      	str	r2, [sp, #16]
    566e:	f8cd a00c 	str.w	sl, [sp, #12]
    5672:	2210      	movs	r2, #16
    5674:	9202      	str	r2, [sp, #8]
    5676:	2200      	movs	r2, #0
    5678:	9201      	str	r2, [sp, #4]
    567a:	9300      	str	r3, [sp, #0]
    567c:	4633      	mov	r3, r6
    567e:	4622      	mov	r2, r4
    5680:	4659      	mov	r1, fp
    5682:	4638      	mov	r0, r7
    5684:	f7ff fc8a 	bl	4f9c <_ntoa_long>
    5688:	4604      	mov	r4, r0
    568a:	9b0d      	ldr	r3, [sp, #52]	; 0x34
    568c:	3301      	adds	r3, #1
    568e:	930d      	str	r3, [sp, #52]	; 0x34
    5690:	e53d      	b.n	510e <_vsnprintf+0x16>
    5692:	1c65      	adds	r5, r4, #1
    5694:	4633      	mov	r3, r6
    5696:	4622      	mov	r2, r4
    5698:	4659      	mov	r1, fp
    569a:	2025      	movs	r0, #37	; 0x25
    569c:	47b8      	blx	r7
    569e:	9b0d      	ldr	r3, [sp, #52]	; 0x34
    56a0:	3301      	adds	r3, #1
    56a2:	930d      	str	r3, [sp, #52]	; 0x34
    56a4:	462c      	mov	r4, r5
    56a6:	e532      	b.n	510e <_vsnprintf+0x16>
    56a8:	1c65      	adds	r5, r4, #1
    56aa:	4633      	mov	r3, r6
    56ac:	4622      	mov	r2, r4
    56ae:	4659      	mov	r1, fp
    56b0:	47b8      	blx	r7
    56b2:	9b0d      	ldr	r3, [sp, #52]	; 0x34
    56b4:	3301      	adds	r3, #1
    56b6:	930d      	str	r3, [sp, #52]	; 0x34
    56b8:	462c      	mov	r4, r5
    56ba:	e528      	b.n	510e <_vsnprintf+0x16>
    56bc:	4f07      	ldr	r7, [pc, #28]	; (56dc <_vsnprintf+0x5e4>)
    56be:	e525      	b.n	510c <_vsnprintf+0x14>
    56c0:	42b4      	cmp	r4, r6
    56c2:	d308      	bcc.n	56d6 <_vsnprintf+0x5de>
    56c4:	1e72      	subs	r2, r6, #1
    56c6:	4633      	mov	r3, r6
    56c8:	4659      	mov	r1, fp
    56ca:	2000      	movs	r0, #0
    56cc:	47b8      	blx	r7
    56ce:	4620      	mov	r0, r4
    56d0:	b00f      	add	sp, #60	; 0x3c
    56d2:	e8bd 8ff0 	ldmia.w	sp!, {r4, r5, r6, r7, r8, r9, sl, fp, pc}
    56d6:	4622      	mov	r2, r4
    56d8:	e7f5      	b.n	56c6 <_vsnprintf+0x5ce>
    56da:	bf00      	nop
    56dc:	00004dc1 	.word	0x00004dc1

000056e0 <snprintf_>:
    56e0:	b40c      	push	{r2, r3}
    56e2:	b510      	push	{r4, lr}
    56e4:	b084      	sub	sp, #16
    56e6:	460a      	mov	r2, r1
    56e8:	ac06      	add	r4, sp, #24
    56ea:	f854 3b04 	ldr.w	r3, [r4], #4
    56ee:	9403      	str	r4, [sp, #12]
    56f0:	9400      	str	r4, [sp, #0]
    56f2:	4601      	mov	r1, r0
    56f4:	4803      	ldr	r0, [pc, #12]	; (5704 <snprintf_+0x24>)
    56f6:	f7ff fcff 	bl	50f8 <_vsnprintf>
    56fa:	b004      	add	sp, #16
    56fc:	e8bd 4010 	ldmia.w	sp!, {r4, lr}
    5700:	b002      	add	sp, #8
    5702:	4770      	bx	lr
    5704:	00004db9 	.word	0x00004db9

00005708 <reflect>:
    5708:	4602      	mov	r2, r0
    570a:	2300      	movs	r3, #0
    570c:	4618      	mov	r0, r3
    570e:	e004      	b.n	571a <reflect+0x12>
    5710:	f85d fb04 	ldr.w	pc, [sp], #4
    5714:	0852      	lsrs	r2, r2, #1
    5716:	3301      	adds	r3, #1
    5718:	b2db      	uxtb	r3, r3
    571a:	428b      	cmp	r3, r1
    571c:	d216      	bcs.n	574c <reflect+0x44>
    571e:	f012 0f01 	tst.w	r2, #1
    5722:	d0f7      	beq.n	5714 <reflect+0xc>
    5724:	b500      	push	{lr}
    5726:	f101 3cff 	add.w	ip, r1, #4294967295	; 0xffffffff
    572a:	ebac 0e03 	sub.w	lr, ip, r3
    572e:	f04f 0c01 	mov.w	ip, #1
    5732:	fa0c fc0e 	lsl.w	ip, ip, lr
    5736:	ea40 000c 	orr.w	r0, r0, ip
    573a:	0852      	lsrs	r2, r2, #1
    573c:	3301      	adds	r3, #1
    573e:	b2db      	uxtb	r3, r3
    5740:	428b      	cmp	r3, r1
    5742:	d2e5      	bcs.n	5710 <reflect+0x8>
    5744:	f012 0f01 	tst.w	r2, #1
    5748:	d0f7      	beq.n	573a <reflect+0x32>
    574a:	e7ec      	b.n	5726 <reflect+0x1e>
    574c:	4770      	bx	lr
	...

00005750 <crcInit>:
    5750:	2000      	movs	r0, #0
    5752:	e011      	b.n	5778 <crcInit+0x28>
    5754:	005b      	lsls	r3, r3, #1
    5756:	b29b      	uxth	r3, r3
    5758:	3a01      	subs	r2, #1
    575a:	b2d2      	uxtb	r2, r2
    575c:	b142      	cbz	r2, 5770 <crcInit+0x20>
    575e:	f413 4f00 	tst.w	r3, #32768	; 0x8000
    5762:	d0f7      	beq.n	5754 <crcInit+0x4>
    5764:	f241 0121 	movw	r1, #4129	; 0x1021
    5768:	ea81 0343 	eor.w	r3, r1, r3, lsl #1
    576c:	b29b      	uxth	r3, r3
    576e:	e7f3      	b.n	5758 <crcInit+0x8>
    5770:	4a05      	ldr	r2, [pc, #20]	; (5788 <crcInit+0x38>)
    5772:	f822 3010 	strh.w	r3, [r2, r0, lsl #1]
    5776:	3001      	adds	r0, #1
    5778:	28ff      	cmp	r0, #255	; 0xff
    577a:	dc04      	bgt.n	5786 <crcInit+0x36>
    577c:	b283      	uxth	r3, r0
    577e:	021b      	lsls	r3, r3, #8
    5780:	b29b      	uxth	r3, r3
    5782:	2208      	movs	r2, #8
    5784:	e7ea      	b.n	575c <crcInit+0xc>
    5786:	4770      	bx	lr
    5788:	200004a0 	.word	0x200004a0

0000578c <crcFast>:
    578c:	b5f8      	push	{r3, r4, r5, r6, r7, lr}
    578e:	4606      	mov	r6, r0
    5790:	460d      	mov	r5, r1
    5792:	2400      	movs	r4, #0
    5794:	4627      	mov	r7, r4
    5796:	e00d      	b.n	57b4 <crcFast+0x28>
    5798:	2108      	movs	r1, #8
    579a:	5d30      	ldrb	r0, [r6, r4]
    579c:	f7ff ffb4 	bl	5708 <reflect>
    57a0:	b2c3      	uxtb	r3, r0
    57a2:	ea83 2317 	eor.w	r3, r3, r7, lsr #8
    57a6:	4a07      	ldr	r2, [pc, #28]	; (57c4 <crcFast+0x38>)
    57a8:	f932 3013 	ldrsh.w	r3, [r2, r3, lsl #1]
    57ac:	ea83 2307 	eor.w	r3, r3, r7, lsl #8
    57b0:	b29f      	uxth	r7, r3
    57b2:	3401      	adds	r4, #1
    57b4:	42ac      	cmp	r4, r5
    57b6:	dbef      	blt.n	5798 <crcFast+0xc>
    57b8:	2110      	movs	r1, #16
    57ba:	4638      	mov	r0, r7
    57bc:	f7ff ffa4 	bl	5708 <reflect>
    57c0:	b280      	uxth	r0, r0
    57c2:	bdf8      	pop	{r3, r4, r5, r6, r7, pc}
    57c4:	200004a0 	.word	0x200004a0

000057c8 <bootloader_rebootAndInstall>:
    57c8:	b508      	push	{r3, lr}
    57ca:	f000 fc86 	bl	60da <CORE_AtomicDisableIrq>
    57ce:	f04f 5300 	mov.w	r3, #536870912	; 0x20000000
    57d2:	f240 2202 	movw	r2, #514	; 0x202
    57d6:	801a      	strh	r2, [r3, #0]
    57d8:	f24f 020f 	movw	r2, #61455	; 0xf00f
    57dc:	805a      	strh	r2, [r3, #2]
    57de:	f3bf 8f4f 	dsb	sy
    57e2:	4905      	ldr	r1, [pc, #20]	; (57f8 <bootloader_rebootAndInstall+0x30>)
    57e4:	68ca      	ldr	r2, [r1, #12]
    57e6:	f402 62e0 	and.w	r2, r2, #1792	; 0x700
    57ea:	4b04      	ldr	r3, [pc, #16]	; (57fc <bootloader_rebootAndInstall+0x34>)
    57ec:	4313      	orrs	r3, r2
    57ee:	60cb      	str	r3, [r1, #12]
    57f0:	f3bf 8f4f 	dsb	sy
    57f4:	bf00      	nop
    57f6:	e7fd      	b.n	57f4 <bootloader_rebootAndInstall+0x2c>
    57f8:	e000ed00 	.word	0xe000ed00
    57fc:	05fa0004 	.word	0x05fa0004

00005800 <assertEFM>:
    5800:	e7fe      	b.n	5800 <assertEFM>
	...

00005804 <flashWaitStateControl>:
    5804:	4b11      	ldr	r3, [pc, #68]	; (584c <flashWaitStateControl+0x48>)
    5806:	69da      	ldr	r2, [r3, #28]
    5808:	f402 3280 	and.w	r2, r2, #65536	; 0x10000
    580c:	f641 3171 	movw	r1, #7025	; 0x1b71
    5810:	63d9      	str	r1, [r3, #60]	; 0x3c
    5812:	689b      	ldr	r3, [r3, #8]
    5814:	f423 1340 	bic.w	r3, r3, #3145728	; 0x300000
    5818:	490d      	ldr	r1, [pc, #52]	; (5850 <flashWaitStateControl+0x4c>)
    581a:	4288      	cmp	r0, r1
    581c:	d901      	bls.n	5822 <flashWaitStateControl+0x1e>
    581e:	f443 1380 	orr.w	r3, r3, #1048576	; 0x100000
    5822:	490a      	ldr	r1, [pc, #40]	; (584c <flashWaitStateControl+0x48>)
    5824:	608b      	str	r3, [r1, #8]
    5826:	4b0b      	ldr	r3, [pc, #44]	; (5854 <flashWaitStateControl+0x50>)
    5828:	f8d3 3218 	ldr.w	r3, [r3, #536]	; 0x218
    582c:	f023 0302 	bic.w	r3, r3, #2
    5830:	4909      	ldr	r1, [pc, #36]	; (5858 <flashWaitStateControl+0x54>)
    5832:	4288      	cmp	r0, r1
    5834:	d901      	bls.n	583a <flashWaitStateControl+0x36>
    5836:	f043 0302 	orr.w	r3, r3, #2
    583a:	4906      	ldr	r1, [pc, #24]	; (5854 <flashWaitStateControl+0x50>)
    583c:	f8c1 3218 	str.w	r3, [r1, #536]	; 0x218
    5840:	b112      	cbz	r2, 5848 <flashWaitStateControl+0x44>
    5842:	4b02      	ldr	r3, [pc, #8]	; (584c <flashWaitStateControl+0x48>)
    5844:	2200      	movs	r2, #0
    5846:	63da      	str	r2, [r3, #60]	; 0x3c
    5848:	4770      	bx	lr
    584a:	bf00      	nop
    584c:	40030000 	.word	0x40030000
    5850:	025317c0 	.word	0x025317c0
    5854:	4007c000 	.word	0x4007c000
    5858:	02faf080 	.word	0x02faf080

0000585c <HFRCODPLLDevinfoGet>:
    585c:	b508      	push	{r3, lr}
    585e:	4b34      	ldr	r3, [pc, #208]	; (5930 <HFRCODPLLDevinfoGet+0xd4>)
    5860:	4298      	cmp	r0, r3
    5862:	d04d      	beq.n	5900 <HFRCODPLLDevinfoGet+0xa4>
    5864:	d910      	bls.n	5888 <HFRCODPLLDevinfoGet+0x2c>
    5866:	4b33      	ldr	r3, [pc, #204]	; (5934 <HFRCODPLLDevinfoGet+0xd8>)
    5868:	4298      	cmp	r0, r3
    586a:	d051      	beq.n	5910 <HFRCODPLLDevinfoGet+0xb4>
    586c:	d931      	bls.n	58d2 <HFRCODPLLDevinfoGet+0x76>
    586e:	4b32      	ldr	r3, [pc, #200]	; (5938 <HFRCODPLLDevinfoGet+0xdc>)
    5870:	4298      	cmp	r0, r3
    5872:	d051      	beq.n	5918 <HFRCODPLLDevinfoGet+0xbc>
    5874:	f503 0374 	add.w	r3, r3, #15990784	; 0xf40000
    5878:	f503 5310 	add.w	r3, r3, #9216	; 0x2400
    587c:	4298      	cmp	r0, r3
    587e:	d14f      	bne.n	5920 <HFRCODPLLDevinfoGet+0xc4>
    5880:	4b2e      	ldr	r3, [pc, #184]	; (593c <HFRCODPLLDevinfoGet+0xe0>)
    5882:	f8d3 0098 	ldr.w	r0, [r3, #152]	; 0x98
    5886:	e01d      	b.n	58c4 <HFRCODPLLDevinfoGet+0x68>
    5888:	4b2d      	ldr	r3, [pc, #180]	; (5940 <HFRCODPLLDevinfoGet+0xe4>)
    588a:	4298      	cmp	r0, r3
    588c:	d032      	beq.n	58f4 <HFRCODPLLDevinfoGet+0x98>
    588e:	d90b      	bls.n	58a8 <HFRCODPLLDevinfoGet+0x4c>
    5890:	4b2c      	ldr	r3, [pc, #176]	; (5944 <HFRCODPLLDevinfoGet+0xe8>)
    5892:	4298      	cmp	r0, r3
    5894:	d031      	beq.n	58fa <HFRCODPLLDevinfoGet+0x9e>
    5896:	f503 1337 	add.w	r3, r3, #2998272	; 0x2dc000
    589a:	f503 63d8 	add.w	r3, r3, #1728	; 0x6c0
    589e:	4298      	cmp	r0, r3
    58a0:	d13e      	bne.n	5920 <HFRCODPLLDevinfoGet+0xc4>
    58a2:	4b26      	ldr	r3, [pc, #152]	; (593c <HFRCODPLLDevinfoGet+0xe0>)
    58a4:	6f98      	ldr	r0, [r3, #120]	; 0x78
    58a6:	e00d      	b.n	58c4 <HFRCODPLLDevinfoGet+0x68>
    58a8:	4b27      	ldr	r3, [pc, #156]	; (5948 <HFRCODPLLDevinfoGet+0xec>)
    58aa:	4298      	cmp	r0, r3
    58ac:	d00e      	beq.n	58cc <HFRCODPLLDevinfoGet+0x70>
    58ae:	d908      	bls.n	58c2 <HFRCODPLLDevinfoGet+0x66>
    58b0:	4b26      	ldr	r3, [pc, #152]	; (594c <HFRCODPLLDevinfoGet+0xf0>)
    58b2:	4298      	cmp	r0, r3
    58b4:	d00a      	beq.n	58cc <HFRCODPLLDevinfoGet+0x70>
    58b6:	4b26      	ldr	r3, [pc, #152]	; (5950 <HFRCODPLLDevinfoGet+0xf4>)
    58b8:	4298      	cmp	r0, r3
    58ba:	d131      	bne.n	5920 <HFRCODPLLDevinfoGet+0xc4>
    58bc:	4b1f      	ldr	r3, [pc, #124]	; (593c <HFRCODPLLDevinfoGet+0xe0>)
    58be:	6e58      	ldr	r0, [r3, #100]	; 0x64
    58c0:	e000      	b.n	58c4 <HFRCODPLLDevinfoGet+0x68>
    58c2:	b900      	cbnz	r0, 58c6 <HFRCODPLLDevinfoGet+0x6a>
    58c4:	bd08      	pop	{r3, pc}
    58c6:	4b23      	ldr	r3, [pc, #140]	; (5954 <HFRCODPLLDevinfoGet+0xf8>)
    58c8:	4298      	cmp	r0, r3
    58ca:	d129      	bne.n	5920 <HFRCODPLLDevinfoGet+0xc4>
    58cc:	4b1b      	ldr	r3, [pc, #108]	; (593c <HFRCODPLLDevinfoGet+0xe0>)
    58ce:	6d98      	ldr	r0, [r3, #88]	; 0x58
    58d0:	e7f8      	b.n	58c4 <HFRCODPLLDevinfoGet+0x68>
    58d2:	4b21      	ldr	r3, [pc, #132]	; (5958 <HFRCODPLLDevinfoGet+0xfc>)
    58d4:	4298      	cmp	r0, r3
    58d6:	d017      	beq.n	5908 <HFRCODPLLDevinfoGet+0xac>
    58d8:	4b20      	ldr	r3, [pc, #128]	; (595c <HFRCODPLLDevinfoGet+0x100>)
    58da:	4298      	cmp	r0, r3
    58dc:	d103      	bne.n	58e6 <HFRCODPLLDevinfoGet+0x8a>
    58de:	4b17      	ldr	r3, [pc, #92]	; (593c <HFRCODPLLDevinfoGet+0xe0>)
    58e0:	f8d3 008c 	ldr.w	r0, [r3, #140]	; 0x8c
    58e4:	e7ee      	b.n	58c4 <HFRCODPLLDevinfoGet+0x68>
    58e6:	4b1e      	ldr	r3, [pc, #120]	; (5960 <HFRCODPLLDevinfoGet+0x104>)
    58e8:	4298      	cmp	r0, r3
    58ea:	d119      	bne.n	5920 <HFRCODPLLDevinfoGet+0xc4>
    58ec:	4b13      	ldr	r3, [pc, #76]	; (593c <HFRCODPLLDevinfoGet+0xe0>)
    58ee:	f8d3 0084 	ldr.w	r0, [r3, #132]	; 0x84
    58f2:	e7e7      	b.n	58c4 <HFRCODPLLDevinfoGet+0x68>
    58f4:	4b11      	ldr	r3, [pc, #68]	; (593c <HFRCODPLLDevinfoGet+0xe0>)
    58f6:	6f18      	ldr	r0, [r3, #112]	; 0x70
    58f8:	e7e4      	b.n	58c4 <HFRCODPLLDevinfoGet+0x68>
    58fa:	4b10      	ldr	r3, [pc, #64]	; (593c <HFRCODPLLDevinfoGet+0xe0>)
    58fc:	6f58      	ldr	r0, [r3, #116]	; 0x74
    58fe:	e7e1      	b.n	58c4 <HFRCODPLLDevinfoGet+0x68>
    5900:	4b0e      	ldr	r3, [pc, #56]	; (593c <HFRCODPLLDevinfoGet+0xe0>)
    5902:	f8d3 0080 	ldr.w	r0, [r3, #128]	; 0x80
    5906:	e7dd      	b.n	58c4 <HFRCODPLLDevinfoGet+0x68>
    5908:	4b0c      	ldr	r3, [pc, #48]	; (593c <HFRCODPLLDevinfoGet+0xe0>)
    590a:	f8d3 0088 	ldr.w	r0, [r3, #136]	; 0x88
    590e:	e7d9      	b.n	58c4 <HFRCODPLLDevinfoGet+0x68>
    5910:	4b0a      	ldr	r3, [pc, #40]	; (593c <HFRCODPLLDevinfoGet+0xe0>)
    5912:	f8d3 0090 	ldr.w	r0, [r3, #144]	; 0x90
    5916:	e7d5      	b.n	58c4 <HFRCODPLLDevinfoGet+0x68>
    5918:	4b08      	ldr	r3, [pc, #32]	; (593c <HFRCODPLLDevinfoGet+0xe0>)
    591a:	f8d3 0094 	ldr.w	r0, [r3, #148]	; 0x94
    591e:	e7d1      	b.n	58c4 <HFRCODPLLDevinfoGet+0x68>
    5920:	f640 611a 	movw	r1, #3610	; 0xe1a
    5924:	480f      	ldr	r0, [pc, #60]	; (5964 <HFRCODPLLDevinfoGet+0x108>)
    5926:	f7ff ff6b 	bl	5800 <assertEFM>
    592a:	2000      	movs	r0, #0
    592c:	e7ca      	b.n	58c4 <HFRCODPLLDevinfoGet+0x68>
    592e:	bf00      	nop
    5930:	018cba80 	.word	0x018cba80
    5934:	03567e00 	.word	0x03567e00
    5938:	03d09000 	.word	0x03d09000
    593c:	0fe08000 	.word	0x0fe08000
    5940:	00c65d40 	.word	0x00c65d40
    5944:	00f42400 	.word	0x00f42400
    5948:	001e8480 	.word	0x001e8480
    594c:	003d0900 	.word	0x003d0900
    5950:	006acfc0 	.word	0x006acfc0
    5954:	000f4240 	.word	0x000f4240
    5958:	0243d580 	.word	0x0243d580
    595c:	02dc6c00 	.word	0x02dc6c00
    5960:	01e84800 	.word	0x01e84800
    5964:	0000bcdc 	.word	0x0000bcdc

00005968 <traceClkGet>:
    5968:	b538      	push	{r3, r4, r5, lr}
    596a:	4605      	mov	r5, r0
    596c:	460c      	mov	r4, r1
    596e:	4b0e      	ldr	r3, [pc, #56]	; (59a8 <traceClkGet+0x40>)
    5970:	f8d3 3080 	ldr.w	r3, [r3, #128]	; 0x80
    5974:	f003 0303 	and.w	r3, r3, #3
    5978:	2b02      	cmp	r3, #2
    597a:	d009      	beq.n	5990 <traceClkGet+0x28>
    597c:	2b03      	cmp	r3, #3
    597e:	d00f      	beq.n	59a0 <traceClkGet+0x38>
    5980:	f240 4142 	movw	r1, #1090	; 0x442
    5984:	4809      	ldr	r0, [pc, #36]	; (59ac <traceClkGet+0x44>)
    5986:	f7ff ff3b 	bl	5800 <assertEFM>
    598a:	2300      	movs	r3, #0
    598c:	4618      	mov	r0, r3
    598e:	e002      	b.n	5996 <traceClkGet+0x2e>
    5990:	f000 fe84 	bl	669c <SystemHCLKGet>
    5994:	230b      	movs	r3, #11
    5996:	b105      	cbz	r5, 599a <traceClkGet+0x32>
    5998:	6028      	str	r0, [r5, #0]
    599a:	b104      	cbz	r4, 599e <traceClkGet+0x36>
    599c:	7023      	strb	r3, [r4, #0]
    599e:	bd38      	pop	{r3, r4, r5, pc}
    59a0:	f000 fe9e 	bl	66e0 <SystemHFRCOEM23ClockGet>
    59a4:	2305      	movs	r3, #5
    59a6:	e7f6      	b.n	5996 <traceClkGet+0x2e>
    59a8:	40008000 	.word	0x40008000
    59ac:	0000bcdc 	.word	0x0000bcdc

000059b0 <em01GrpaClkGet>:
    59b0:	b538      	push	{r3, r4, r5, lr}
    59b2:	4605      	mov	r5, r0
    59b4:	460c      	mov	r4, r1
    59b6:	4b14      	ldr	r3, [pc, #80]	; (5a08 <em01GrpaClkGet+0x58>)
    59b8:	f8d3 3120 	ldr.w	r3, [r3, #288]	; 0x120
    59bc:	f003 0307 	and.w	r3, r3, #7
    59c0:	3b01      	subs	r3, #1
    59c2:	2b03      	cmp	r3, #3
    59c4:	d817      	bhi.n	59f6 <em01GrpaClkGet+0x46>
    59c6:	e8df f003 	tbb	[pc, r3]
    59ca:	0a02      	.short	0x0a02
    59cc:	120e      	.short	0x120e
    59ce:	f000 fe3f 	bl	6650 <SystemHFRCODPLLClockGet>
    59d2:	2304      	movs	r3, #4
    59d4:	b105      	cbz	r5, 59d8 <em01GrpaClkGet+0x28>
    59d6:	6028      	str	r0, [r5, #0]
    59d8:	b104      	cbz	r4, 59dc <em01GrpaClkGet+0x2c>
    59da:	7023      	strb	r3, [r4, #0]
    59dc:	bd38      	pop	{r3, r4, r5, pc}
    59de:	f000 fe73 	bl	66c8 <SystemHFXOClockGet>
    59e2:	2303      	movs	r3, #3
    59e4:	e7f6      	b.n	59d4 <em01GrpaClkGet+0x24>
    59e6:	f000 fe7b 	bl	66e0 <SystemHFRCOEM23ClockGet>
    59ea:	2305      	movs	r3, #5
    59ec:	e7f2      	b.n	59d4 <em01GrpaClkGet+0x24>
    59ee:	f000 fe73 	bl	66d8 <SystemFSRCOClockGet>
    59f2:	2302      	movs	r3, #2
    59f4:	e7ee      	b.n	59d4 <em01GrpaClkGet+0x24>
    59f6:	f640 5128 	movw	r1, #3368	; 0xd28
    59fa:	4804      	ldr	r0, [pc, #16]	; (5a0c <em01GrpaClkGet+0x5c>)
    59fc:	f7ff ff00 	bl	5800 <assertEFM>
    5a00:	2300      	movs	r3, #0
    5a02:	4618      	mov	r0, r3
    5a04:	e7e6      	b.n	59d4 <em01GrpaClkGet+0x24>
    5a06:	bf00      	nop
    5a08:	40008000 	.word	0x40008000
    5a0c:	0000bcdc 	.word	0x0000bcdc

00005a10 <iadcClkGet>:
    5a10:	b530      	push	{r4, r5, lr}
    5a12:	b083      	sub	sp, #12
    5a14:	4605      	mov	r5, r0
    5a16:	460c      	mov	r4, r1
    5a18:	2300      	movs	r3, #0
    5a1a:	9301      	str	r3, [sp, #4]
    5a1c:	4b13      	ldr	r3, [pc, #76]	; (5a6c <iadcClkGet+0x5c>)
    5a1e:	f8d3 3180 	ldr.w	r3, [r3, #384]	; 0x180
    5a22:	f003 0303 	and.w	r3, r3, #3
    5a26:	2b02      	cmp	r3, #2
    5a28:	d016      	beq.n	5a58 <iadcClkGet+0x48>
    5a2a:	2b03      	cmp	r3, #3
    5a2c:	d019      	beq.n	5a62 <iadcClkGet+0x52>
    5a2e:	2b01      	cmp	r3, #1
    5a30:	d006      	beq.n	5a40 <iadcClkGet+0x30>
    5a32:	f640 6144 	movw	r1, #3652	; 0xe44
    5a36:	480e      	ldr	r0, [pc, #56]	; (5a70 <iadcClkGet+0x60>)
    5a38:	f7ff fee2 	bl	5800 <assertEFM>
    5a3c:	2300      	movs	r3, #0
    5a3e:	e004      	b.n	5a4a <iadcClkGet+0x3a>
    5a40:	2100      	movs	r1, #0
    5a42:	a801      	add	r0, sp, #4
    5a44:	f7ff ffb4 	bl	59b0 <em01GrpaClkGet>
    5a48:	230d      	movs	r3, #13
    5a4a:	b10d      	cbz	r5, 5a50 <iadcClkGet+0x40>
    5a4c:	9a01      	ldr	r2, [sp, #4]
    5a4e:	602a      	str	r2, [r5, #0]
    5a50:	b104      	cbz	r4, 5a54 <iadcClkGet+0x44>
    5a52:	7023      	strb	r3, [r4, #0]
    5a54:	b003      	add	sp, #12
    5a56:	bd30      	pop	{r4, r5, pc}
    5a58:	f000 fe42 	bl	66e0 <SystemHFRCOEM23ClockGet>
    5a5c:	9001      	str	r0, [sp, #4]
    5a5e:	2305      	movs	r3, #5
    5a60:	e7f3      	b.n	5a4a <iadcClkGet+0x3a>
    5a62:	f000 fe39 	bl	66d8 <SystemFSRCOClockGet>
    5a66:	9001      	str	r0, [sp, #4]
    5a68:	2302      	movs	r3, #2
    5a6a:	e7ee      	b.n	5a4a <iadcClkGet+0x3a>
    5a6c:	40008000 	.word	0x40008000
    5a70:	0000bcdc 	.word	0x0000bcdc

00005a74 <em23GrpaClkGet>:
    5a74:	b538      	push	{r3, r4, r5, lr}
    5a76:	4605      	mov	r5, r0
    5a78:	460c      	mov	r4, r1
    5a7a:	4b11      	ldr	r3, [pc, #68]	; (5ac0 <em23GrpaClkGet+0x4c>)
    5a7c:	f8d3 3140 	ldr.w	r3, [r3, #320]	; 0x140
    5a80:	f003 0303 	and.w	r3, r3, #3
    5a84:	2b02      	cmp	r3, #2
    5a86:	d013      	beq.n	5ab0 <em23GrpaClkGet+0x3c>
    5a88:	2b03      	cmp	r3, #3
    5a8a:	d015      	beq.n	5ab8 <em23GrpaClkGet+0x44>
    5a8c:	2b01      	cmp	r3, #1
    5a8e:	d007      	beq.n	5aa0 <em23GrpaClkGet+0x2c>
    5a90:	f640 5156 	movw	r1, #3414	; 0xd56
    5a94:	480b      	ldr	r0, [pc, #44]	; (5ac4 <em23GrpaClkGet+0x50>)
    5a96:	f7ff feb3 	bl	5800 <assertEFM>
    5a9a:	2300      	movs	r3, #0
    5a9c:	4618      	mov	r0, r3
    5a9e:	e002      	b.n	5aa6 <em23GrpaClkGet+0x32>
    5aa0:	f000 fe62 	bl	6768 <SystemLFRCOClockGet>
    5aa4:	2308      	movs	r3, #8
    5aa6:	b105      	cbz	r5, 5aaa <em23GrpaClkGet+0x36>
    5aa8:	6028      	str	r0, [r5, #0]
    5aaa:	b104      	cbz	r4, 5aae <em23GrpaClkGet+0x3a>
    5aac:	7023      	strb	r3, [r4, #0]
    5aae:	bd38      	pop	{r3, r4, r5, pc}
    5ab0:	f000 fe60 	bl	6774 <SystemLFXOClockGet>
    5ab4:	2307      	movs	r3, #7
    5ab6:	e7f6      	b.n	5aa6 <em23GrpaClkGet+0x32>
    5ab8:	f000 fe59 	bl	676e <SystemULFRCOClockGet>
    5abc:	2309      	movs	r3, #9
    5abe:	e7f2      	b.n	5aa6 <em23GrpaClkGet+0x32>
    5ac0:	40008000 	.word	0x40008000
    5ac4:	0000bcdc 	.word	0x0000bcdc

00005ac8 <em4GrpaClkGet>:
    5ac8:	b538      	push	{r3, r4, r5, lr}
    5aca:	4605      	mov	r5, r0
    5acc:	460c      	mov	r4, r1
    5ace:	4b11      	ldr	r3, [pc, #68]	; (5b14 <em4GrpaClkGet+0x4c>)
    5ad0:	f8d3 3160 	ldr.w	r3, [r3, #352]	; 0x160
    5ad4:	f003 0303 	and.w	r3, r3, #3
    5ad8:	2b02      	cmp	r3, #2
    5ada:	d013      	beq.n	5b04 <em4GrpaClkGet+0x3c>
    5adc:	2b03      	cmp	r3, #3
    5ade:	d015      	beq.n	5b0c <em4GrpaClkGet+0x44>
    5ae0:	2b01      	cmp	r3, #1
    5ae2:	d007      	beq.n	5af4 <em4GrpaClkGet+0x2c>
    5ae4:	f640 5184 	movw	r1, #3460	; 0xd84
    5ae8:	480b      	ldr	r0, [pc, #44]	; (5b18 <em4GrpaClkGet+0x50>)
    5aea:	f7ff fe89 	bl	5800 <assertEFM>
    5aee:	2300      	movs	r3, #0
    5af0:	4618      	mov	r0, r3
    5af2:	e002      	b.n	5afa <em4GrpaClkGet+0x32>
    5af4:	f000 fe38 	bl	6768 <SystemLFRCOClockGet>
    5af8:	2308      	movs	r3, #8
    5afa:	b105      	cbz	r5, 5afe <em4GrpaClkGet+0x36>
    5afc:	6028      	str	r0, [r5, #0]
    5afe:	b104      	cbz	r4, 5b02 <em4GrpaClkGet+0x3a>
    5b00:	7023      	strb	r3, [r4, #0]
    5b02:	bd38      	pop	{r3, r4, r5, pc}
    5b04:	f000 fe36 	bl	6774 <SystemLFXOClockGet>
    5b08:	2307      	movs	r3, #7
    5b0a:	e7f6      	b.n	5afa <em4GrpaClkGet+0x32>
    5b0c:	f000 fe2f 	bl	676e <SystemULFRCOClockGet>
    5b10:	2309      	movs	r3, #9
    5b12:	e7f2      	b.n	5afa <em4GrpaClkGet+0x32>
    5b14:	40008000 	.word	0x40008000
    5b18:	0000bcdc 	.word	0x0000bcdc

00005b1c <wdog0ClkGet>:
    5b1c:	b538      	push	{r3, r4, r5, lr}
    5b1e:	4605      	mov	r5, r0
    5b20:	460c      	mov	r4, r1
    5b22:	4b14      	ldr	r3, [pc, #80]	; (5b74 <wdog0ClkGet+0x58>)
    5b24:	f8d3 3200 	ldr.w	r3, [r3, #512]	; 0x200
    5b28:	f003 0307 	and.w	r3, r3, #7
    5b2c:	3b01      	subs	r3, #1
    5b2e:	2b03      	cmp	r3, #3
    5b30:	d818      	bhi.n	5b64 <wdog0ClkGet+0x48>
    5b32:	e8df f003 	tbb	[pc, r3]
    5b36:	0a02      	.short	0x0a02
    5b38:	120e      	.short	0x120e
    5b3a:	f000 fe15 	bl	6768 <SystemLFRCOClockGet>
    5b3e:	2308      	movs	r3, #8
    5b40:	b105      	cbz	r5, 5b44 <wdog0ClkGet+0x28>
    5b42:	6028      	str	r0, [r5, #0]
    5b44:	b104      	cbz	r4, 5b48 <wdog0ClkGet+0x2c>
    5b46:	7023      	strb	r3, [r4, #0]
    5b48:	bd38      	pop	{r3, r4, r5, pc}
    5b4a:	f000 fe13 	bl	6774 <SystemLFXOClockGet>
    5b4e:	2307      	movs	r3, #7
    5b50:	e7f6      	b.n	5b40 <wdog0ClkGet+0x24>
    5b52:	f000 fe0c 	bl	676e <SystemULFRCOClockGet>
    5b56:	2309      	movs	r3, #9
    5b58:	e7f2      	b.n	5b40 <wdog0ClkGet+0x24>
    5b5a:	f000 fd9f 	bl	669c <SystemHCLKGet>
    5b5e:	0a80      	lsrs	r0, r0, #10
    5b60:	230c      	movs	r3, #12
    5b62:	e7ed      	b.n	5b40 <wdog0ClkGet+0x24>
    5b64:	f640 61f7 	movw	r1, #3831	; 0xef7
    5b68:	4803      	ldr	r0, [pc, #12]	; (5b78 <wdog0ClkGet+0x5c>)
    5b6a:	f7ff fe49 	bl	5800 <assertEFM>
    5b6e:	2300      	movs	r3, #0
    5b70:	4618      	mov	r0, r3
    5b72:	e7e5      	b.n	5b40 <wdog0ClkGet+0x24>
    5b74:	40008000 	.word	0x40008000
    5b78:	0000bcdc 	.word	0x0000bcdc

00005b7c <wdog1ClkGet>:
    5b7c:	b538      	push	{r3, r4, r5, lr}
    5b7e:	4605      	mov	r5, r0
    5b80:	460c      	mov	r4, r1
    5b82:	4b14      	ldr	r3, [pc, #80]	; (5bd4 <wdog1ClkGet+0x58>)
    5b84:	f8d3 3208 	ldr.w	r3, [r3, #520]	; 0x208
    5b88:	f003 0307 	and.w	r3, r3, #7
    5b8c:	3b01      	subs	r3, #1
    5b8e:	2b03      	cmp	r3, #3
    5b90:	d818      	bhi.n	5bc4 <wdog1ClkGet+0x48>
    5b92:	e8df f003 	tbb	[pc, r3]
    5b96:	0a02      	.short	0x0a02
    5b98:	120e      	.short	0x120e
    5b9a:	f000 fde5 	bl	6768 <SystemLFRCOClockGet>
    5b9e:	2308      	movs	r3, #8
    5ba0:	b105      	cbz	r5, 5ba4 <wdog1ClkGet+0x28>
    5ba2:	6028      	str	r0, [r5, #0]
    5ba4:	b104      	cbz	r4, 5ba8 <wdog1ClkGet+0x2c>
    5ba6:	7023      	strb	r3, [r4, #0]
    5ba8:	bd38      	pop	{r3, r4, r5, pc}
    5baa:	f000 fde3 	bl	6774 <SystemLFXOClockGet>
    5bae:	2307      	movs	r3, #7
    5bb0:	e7f6      	b.n	5ba0 <wdog1ClkGet+0x24>
    5bb2:	f000 fddc 	bl	676e <SystemULFRCOClockGet>
    5bb6:	2309      	movs	r3, #9
    5bb8:	e7f2      	b.n	5ba0 <wdog1ClkGet+0x24>
    5bba:	f000 fd6f 	bl	669c <SystemHCLKGet>
    5bbe:	0a80      	lsrs	r0, r0, #10
    5bc0:	230c      	movs	r3, #12
    5bc2:	e7ed      	b.n	5ba0 <wdog1ClkGet+0x24>
    5bc4:	f240 4177 	movw	r1, #1143	; 0x477
    5bc8:	4803      	ldr	r0, [pc, #12]	; (5bd8 <wdog1ClkGet+0x5c>)
    5bca:	f7ff fe19 	bl	5800 <assertEFM>
    5bce:	2300      	movs	r3, #0
    5bd0:	4618      	mov	r0, r3
    5bd2:	e7e5      	b.n	5ba0 <wdog1ClkGet+0x24>
    5bd4:	40008000 	.word	0x40008000
    5bd8:	0000bcdc 	.word	0x0000bcdc

00005bdc <rtccClkGet>:
    5bdc:	b538      	push	{r3, r4, r5, lr}
    5bde:	4605      	mov	r5, r0
    5be0:	460c      	mov	r4, r1
    5be2:	4b11      	ldr	r3, [pc, #68]	; (5c28 <rtccClkGet+0x4c>)
    5be4:	f8d3 3240 	ldr.w	r3, [r3, #576]	; 0x240
    5be8:	f003 0303 	and.w	r3, r3, #3
    5bec:	2b02      	cmp	r3, #2
    5bee:	d013      	beq.n	5c18 <rtccClkGet+0x3c>
    5bf0:	2b03      	cmp	r3, #3
    5bf2:	d015      	beq.n	5c20 <rtccClkGet+0x44>
    5bf4:	2b01      	cmp	r3, #1
    5bf6:	d007      	beq.n	5c08 <rtccClkGet+0x2c>
    5bf8:	f640 618b 	movw	r1, #3723	; 0xe8b
    5bfc:	480b      	ldr	r0, [pc, #44]	; (5c2c <rtccClkGet+0x50>)
    5bfe:	f7ff fdff 	bl	5800 <assertEFM>
    5c02:	2300      	movs	r3, #0
    5c04:	4618      	mov	r0, r3
    5c06:	e002      	b.n	5c0e <rtccClkGet+0x32>
    5c08:	f000 fdae 	bl	6768 <SystemLFRCOClockGet>
    5c0c:	2308      	movs	r3, #8
    5c0e:	b105      	cbz	r5, 5c12 <rtccClkGet+0x36>
    5c10:	6028      	str	r0, [r5, #0]
    5c12:	b104      	cbz	r4, 5c16 <rtccClkGet+0x3a>
    5c14:	7023      	strb	r3, [r4, #0]
    5c16:	bd38      	pop	{r3, r4, r5, pc}
    5c18:	f000 fdac 	bl	6774 <SystemLFXOClockGet>
    5c1c:	2307      	movs	r3, #7
    5c1e:	e7f6      	b.n	5c0e <rtccClkGet+0x32>
    5c20:	f000 fda5 	bl	676e <SystemULFRCOClockGet>
    5c24:	2309      	movs	r3, #9
    5c26:	e7f2      	b.n	5c0e <rtccClkGet+0x32>
    5c28:	40008000 	.word	0x40008000
    5c2c:	0000bcdc 	.word	0x0000bcdc

00005c30 <dpllRefClkGet>:
    5c30:	b538      	push	{r3, r4, r5, lr}
    5c32:	4605      	mov	r5, r0
    5c34:	460c      	mov	r4, r1
    5c36:	4b12      	ldr	r3, [pc, #72]	; (5c80 <dpllRefClkGet+0x50>)
    5c38:	f8d3 0100 	ldr.w	r0, [r3, #256]	; 0x100
    5c3c:	f000 0003 	and.w	r0, r0, #3
    5c40:	2803      	cmp	r0, #3
    5c42:	d80f      	bhi.n	5c64 <dpllRefClkGet+0x34>
    5c44:	e8df f000 	tbb	[pc, r0]
    5c48:	0a060216 	.word	0x0a060216
    5c4c:	f000 fd3c 	bl	66c8 <SystemHFXOClockGet>
    5c50:	2303      	movs	r3, #3
    5c52:	e010      	b.n	5c76 <dpllRefClkGet+0x46>
    5c54:	f000 fd8e 	bl	6774 <SystemLFXOClockGet>
    5c58:	2307      	movs	r3, #7
    5c5a:	e00c      	b.n	5c76 <dpllRefClkGet+0x46>
    5c5c:	f000 fd3a 	bl	66d4 <SystemCLKIN0Get>
    5c60:	2306      	movs	r3, #6
    5c62:	e008      	b.n	5c76 <dpllRefClkGet+0x46>
    5c64:	f640 41e5 	movw	r1, #3301	; 0xce5
    5c68:	4806      	ldr	r0, [pc, #24]	; (5c84 <dpllRefClkGet+0x54>)
    5c6a:	f7ff fdc9 	bl	5800 <assertEFM>
    5c6e:	2300      	movs	r3, #0
    5c70:	4618      	mov	r0, r3
    5c72:	e000      	b.n	5c76 <dpllRefClkGet+0x46>
    5c74:	2301      	movs	r3, #1
    5c76:	b105      	cbz	r5, 5c7a <dpllRefClkGet+0x4a>
    5c78:	6028      	str	r0, [r5, #0]
    5c7a:	b104      	cbz	r4, 5c7e <dpllRefClkGet+0x4e>
    5c7c:	7023      	strb	r3, [r4, #0]
    5c7e:	bd38      	pop	{r3, r4, r5, pc}
    5c80:	40008000 	.word	0x40008000
    5c84:	0000bcdc 	.word	0x0000bcdc

00005c88 <waitStateMax>:
    5c88:	b508      	push	{r3, lr}
    5c8a:	f000 fd19 	bl	66c0 <SystemMaxCoreClockGet>
    5c8e:	2100      	movs	r1, #0
    5c90:	f7ff fdb8 	bl	5804 <flashWaitStateControl>
    5c94:	bd08      	pop	{r3, pc}
	...

00005c98 <CMU_ClockDivGet>:
    5c98:	b510      	push	{r4, lr}
    5c9a:	3801      	subs	r0, #1
    5c9c:	280e      	cmp	r0, #14
    5c9e:	d820      	bhi.n	5ce2 <CMU_ClockDivGet+0x4a>
    5ca0:	e8df f000 	tbb	[pc, r0]
    5ca4:	1f1a1408 	.word	0x1f1a1408
    5ca8:	1f1f1f1f 	.word	0x1f1f1f1f
    5cac:	1f1f1f1f 	.word	0x1f1f1f1f
    5cb0:	1f1f      	.short	0x1f1f
    5cb2:	08          	.byte	0x08
    5cb3:	00          	.byte	0x00
    5cb4:	4b0c      	ldr	r3, [pc, #48]	; (5ce8 <CMU_ClockDivGet+0x50>)
    5cb6:	6f1c      	ldr	r4, [r3, #112]	; 0x70
    5cb8:	f3c4 3401 	ubfx	r4, r4, #12, #2
    5cbc:	2c02      	cmp	r4, #2
    5cbe:	d111      	bne.n	5ce4 <CMU_ClockDivGet+0x4c>
    5cc0:	f240 51d9 	movw	r1, #1497	; 0x5d9
    5cc4:	4809      	ldr	r0, [pc, #36]	; (5cec <CMU_ClockDivGet+0x54>)
    5cc6:	f7ff fd9b 	bl	5800 <assertEFM>
    5cca:	e00b      	b.n	5ce4 <CMU_ClockDivGet+0x4c>
    5ccc:	4b06      	ldr	r3, [pc, #24]	; (5ce8 <CMU_ClockDivGet+0x50>)
    5cce:	f8d3 4090 	ldr.w	r4, [r3, #144]	; 0x90
    5cd2:	f3c4 6404 	ubfx	r4, r4, #24, #5
    5cd6:	e005      	b.n	5ce4 <CMU_ClockDivGet+0x4c>
    5cd8:	4b03      	ldr	r3, [pc, #12]	; (5ce8 <CMU_ClockDivGet+0x50>)
    5cda:	6f1c      	ldr	r4, [r3, #112]	; 0x70
    5cdc:	f3c4 2480 	ubfx	r4, r4, #10, #1
    5ce0:	e000      	b.n	5ce4 <CMU_ClockDivGet+0x4c>
    5ce2:	2400      	movs	r4, #0
    5ce4:	1c60      	adds	r0, r4, #1
    5ce6:	bd10      	pop	{r4, pc}
    5ce8:	40008000 	.word	0x40008000
    5cec:	0000bcdc 	.word	0x0000bcdc

00005cf0 <CMU_ClockFreqGet>:
    5cf0:	b510      	push	{r4, lr}
    5cf2:	b082      	sub	sp, #8
    5cf4:	2300      	movs	r3, #0
    5cf6:	9301      	str	r3, [sp, #4]
    5cf8:	2825      	cmp	r0, #37	; 0x25
    5cfa:	d86a      	bhi.n	5dd2 <CMU_ClockFreqGet+0xe2>
    5cfc:	e8df f000 	tbb	[pc, r0]
    5d00:	271d1913 	.word	0x271d1913
    5d04:	46413c31 	.word	0x46413c31
    5d08:	5a55504b 	.word	0x5a55504b
    5d0c:	1969645f 	.word	0x1969645f
    5d10:	4b696946 	.word	0x4b696946
    5d14:	27312719 	.word	0x27312719
    5d18:	2746193c 	.word	0x2746193c
    5d1c:	41414164 	.word	0x41414164
    5d20:	27272741 	.word	0x27272741
    5d24:	5550      	.short	0x5550
    5d26:	f000 fc9f 	bl	6668 <SystemSYSCLKGet>
    5d2a:	9001      	str	r0, [sp, #4]
    5d2c:	9801      	ldr	r0, [sp, #4]
    5d2e:	b002      	add	sp, #8
    5d30:	bd10      	pop	{r4, pc}
    5d32:	f000 fcb3 	bl	669c <SystemHCLKGet>
    5d36:	9001      	str	r0, [sp, #4]
    5d38:	e7f8      	b.n	5d2c <CMU_ClockFreqGet+0x3c>
    5d3a:	f000 fc95 	bl	6668 <SystemSYSCLKGet>
    5d3e:	4604      	mov	r4, r0
    5d40:	2002      	movs	r0, #2
    5d42:	f7ff ffa9 	bl	5c98 <CMU_ClockDivGet>
    5d46:	fbb4 f4f0 	udiv	r4, r4, r0
    5d4a:	9401      	str	r4, [sp, #4]
    5d4c:	e7ee      	b.n	5d2c <CMU_ClockFreqGet+0x3c>
    5d4e:	f000 fca5 	bl	669c <SystemHCLKGet>
    5d52:	4604      	mov	r4, r0
    5d54:	2003      	movs	r0, #3
    5d56:	f7ff ff9f 	bl	5c98 <CMU_ClockDivGet>
    5d5a:	fbb4 f4f0 	udiv	r4, r4, r0
    5d5e:	9401      	str	r4, [sp, #4]
    5d60:	e7e4      	b.n	5d2c <CMU_ClockFreqGet+0x3c>
    5d62:	f000 fc9b 	bl	669c <SystemHCLKGet>
    5d66:	4604      	mov	r4, r0
    5d68:	2003      	movs	r0, #3
    5d6a:	f7ff ff95 	bl	5c98 <CMU_ClockDivGet>
    5d6e:	fbb4 f4f0 	udiv	r4, r4, r0
    5d72:	0864      	lsrs	r4, r4, #1
    5d74:	9401      	str	r4, [sp, #4]
    5d76:	e7d9      	b.n	5d2c <CMU_ClockFreqGet+0x3c>
    5d78:	2100      	movs	r1, #0
    5d7a:	a801      	add	r0, sp, #4
    5d7c:	f7ff fe48 	bl	5a10 <iadcClkGet>
    5d80:	e7d4      	b.n	5d2c <CMU_ClockFreqGet+0x3c>
    5d82:	2100      	movs	r1, #0
    5d84:	a801      	add	r0, sp, #4
    5d86:	f7ff fe13 	bl	59b0 <em01GrpaClkGet>
    5d8a:	e7cf      	b.n	5d2c <CMU_ClockFreqGet+0x3c>
    5d8c:	2100      	movs	r1, #0
    5d8e:	a801      	add	r0, sp, #4
    5d90:	f7ff fe70 	bl	5a74 <em23GrpaClkGet>
    5d94:	e7ca      	b.n	5d2c <CMU_ClockFreqGet+0x3c>
    5d96:	2100      	movs	r1, #0
    5d98:	a801      	add	r0, sp, #4
    5d9a:	f7ff fe95 	bl	5ac8 <em4GrpaClkGet>
    5d9e:	e7c5      	b.n	5d2c <CMU_ClockFreqGet+0x3c>
    5da0:	2100      	movs	r1, #0
    5da2:	a801      	add	r0, sp, #4
    5da4:	f7ff feba 	bl	5b1c <wdog0ClkGet>
    5da8:	e7c0      	b.n	5d2c <CMU_ClockFreqGet+0x3c>
    5daa:	2100      	movs	r1, #0
    5dac:	a801      	add	r0, sp, #4
    5dae:	f7ff fee5 	bl	5b7c <wdog1ClkGet>
    5db2:	e7bb      	b.n	5d2c <CMU_ClockFreqGet+0x3c>
    5db4:	2100      	movs	r1, #0
    5db6:	a801      	add	r0, sp, #4
    5db8:	f7ff ff3a 	bl	5c30 <dpllRefClkGet>
    5dbc:	e7b6      	b.n	5d2c <CMU_ClockFreqGet+0x3c>
    5dbe:	2100      	movs	r1, #0
    5dc0:	a801      	add	r0, sp, #4
    5dc2:	f7ff fdd1 	bl	5968 <traceClkGet>
    5dc6:	e7b1      	b.n	5d2c <CMU_ClockFreqGet+0x3c>
    5dc8:	2100      	movs	r1, #0
    5dca:	a801      	add	r0, sp, #4
    5dcc:	f7ff ff06 	bl	5bdc <rtccClkGet>
    5dd0:	e7ac      	b.n	5d2c <CMU_ClockFreqGet+0x3c>
    5dd2:	f240 31ad 	movw	r1, #941	; 0x3ad
    5dd6:	4802      	ldr	r0, [pc, #8]	; (5de0 <CMU_ClockFreqGet+0xf0>)
    5dd8:	f7ff fd12 	bl	5800 <assertEFM>
    5ddc:	e7a6      	b.n	5d2c <CMU_ClockFreqGet+0x3c>
    5dde:	bf00      	nop
    5de0:	0000bcdc 	.word	0x0000bcdc

00005de4 <CMU_ClockSelectGet>:
    5de4:	b500      	push	{lr}
    5de6:	b083      	sub	sp, #12
    5de8:	2300      	movs	r3, #0
    5dea:	f88d 3007 	strb.w	r3, [sp, #7]
    5dee:	2825      	cmp	r0, #37	; 0x25
    5df0:	d86f      	bhi.n	5ed2 <CMU_ClockSelectGet+0xee>
    5df2:	e8df f000 	tbb	[pc, r0]
    5df6:	6e13      	.short	0x6e13
    5df8:	346e6e6e 	.word	0x346e6e6e
    5dfc:	504a443e 	.word	0x504a443e
    5e00:	68625c56 	.word	0x68625c56
    5e04:	6e446e6e 	.word	0x6e446e6e
    5e08:	6e6e4a6e 	.word	0x6e6e4a6e
    5e0c:	6e346e6e 	.word	0x6e346e6e
    5e10:	3e686e44 	.word	0x3e686e44
    5e14:	6e3e3e3e 	.word	0x6e3e3e3e
    5e18:	56506e6e 	.word	0x56506e6e
    5e1c:	4b30      	ldr	r3, [pc, #192]	; (5ee0 <CMU_ClockSelectGet+0xfc>)
    5e1e:	6f1b      	ldr	r3, [r3, #112]	; 0x70
    5e20:	f003 0307 	and.w	r3, r3, #7
    5e24:	3b01      	subs	r3, #1
    5e26:	2b03      	cmp	r3, #3
    5e28:	d813      	bhi.n	5e52 <CMU_ClockSelectGet+0x6e>
    5e2a:	e8df f003 	tbb	[pc, r3]
    5e2e:	020e      	.short	0x020e
    5e30:	0a06      	.short	0x0a06
    5e32:	2304      	movs	r3, #4
    5e34:	f88d 3007 	strb.w	r3, [sp, #7]
    5e38:	e016      	b.n	5e68 <CMU_ClockSelectGet+0x84>
    5e3a:	2303      	movs	r3, #3
    5e3c:	f88d 3007 	strb.w	r3, [sp, #7]
    5e40:	e012      	b.n	5e68 <CMU_ClockSelectGet+0x84>
    5e42:	2306      	movs	r3, #6
    5e44:	f88d 3007 	strb.w	r3, [sp, #7]
    5e48:	e00e      	b.n	5e68 <CMU_ClockSelectGet+0x84>
    5e4a:	2302      	movs	r3, #2
    5e4c:	f88d 3007 	strb.w	r3, [sp, #7]
    5e50:	e00a      	b.n	5e68 <CMU_ClockSelectGet+0x84>
    5e52:	f240 6172 	movw	r1, #1650	; 0x672
    5e56:	4823      	ldr	r0, [pc, #140]	; (5ee4 <CMU_ClockSelectGet+0x100>)
    5e58:	f7ff fcd2 	bl	5800 <assertEFM>
    5e5c:	e004      	b.n	5e68 <CMU_ClockSelectGet+0x84>
    5e5e:	f10d 0107 	add.w	r1, sp, #7
    5e62:	2000      	movs	r0, #0
    5e64:	f7ff fdd4 	bl	5a10 <iadcClkGet>
    5e68:	f89d 0007 	ldrb.w	r0, [sp, #7]
    5e6c:	b003      	add	sp, #12
    5e6e:	f85d fb04 	ldr.w	pc, [sp], #4
    5e72:	f10d 0107 	add.w	r1, sp, #7
    5e76:	2000      	movs	r0, #0
    5e78:	f7ff fd9a 	bl	59b0 <em01GrpaClkGet>
    5e7c:	e7f4      	b.n	5e68 <CMU_ClockSelectGet+0x84>
    5e7e:	f10d 0107 	add.w	r1, sp, #7
    5e82:	2000      	movs	r0, #0
    5e84:	f7ff fdf6 	bl	5a74 <em23GrpaClkGet>
    5e88:	e7ee      	b.n	5e68 <CMU_ClockSelectGet+0x84>
    5e8a:	f10d 0107 	add.w	r1, sp, #7
    5e8e:	2000      	movs	r0, #0
    5e90:	f7ff fe1a 	bl	5ac8 <em4GrpaClkGet>
    5e94:	e7e8      	b.n	5e68 <CMU_ClockSelectGet+0x84>
    5e96:	f10d 0107 	add.w	r1, sp, #7
    5e9a:	2000      	movs	r0, #0
    5e9c:	f7ff fe3e 	bl	5b1c <wdog0ClkGet>
    5ea0:	e7e2      	b.n	5e68 <CMU_ClockSelectGet+0x84>
    5ea2:	f10d 0107 	add.w	r1, sp, #7
    5ea6:	2000      	movs	r0, #0
    5ea8:	f7ff fe68 	bl	5b7c <wdog1ClkGet>
    5eac:	e7dc      	b.n	5e68 <CMU_ClockSelectGet+0x84>
    5eae:	f10d 0107 	add.w	r1, sp, #7
    5eb2:	2000      	movs	r0, #0
    5eb4:	f7ff febc 	bl	5c30 <dpllRefClkGet>
    5eb8:	e7d6      	b.n	5e68 <CMU_ClockSelectGet+0x84>
    5eba:	f10d 0107 	add.w	r1, sp, #7
    5ebe:	2000      	movs	r0, #0
    5ec0:	f7ff fd52 	bl	5968 <traceClkGet>
    5ec4:	e7d0      	b.n	5e68 <CMU_ClockSelectGet+0x84>
    5ec6:	f10d 0107 	add.w	r1, sp, #7
    5eca:	2000      	movs	r0, #0
    5ecc:	f7ff fe86 	bl	5bdc <rtccClkGet>
    5ed0:	e7ca      	b.n	5e68 <CMU_ClockSelectGet+0x84>
    5ed2:	f240 7101 	movw	r1, #1793	; 0x701
    5ed6:	4803      	ldr	r0, [pc, #12]	; (5ee4 <CMU_ClockSelectGet+0x100>)
    5ed8:	f7ff fc92 	bl	5800 <assertEFM>
    5edc:	e7c4      	b.n	5e68 <CMU_ClockSelectGet+0x84>
    5ede:	bf00      	nop
    5ee0:	40008000 	.word	0x40008000
    5ee4:	0000bcdc 	.word	0x0000bcdc

00005ee8 <CMU_UpdateWaitStates>:
    5ee8:	b508      	push	{r3, lr}
    5eea:	2900      	cmp	r1, #0
    5eec:	dd03      	ble.n	5ef6 <CMU_UpdateWaitStates+0xe>
    5eee:	2101      	movs	r1, #1
    5ef0:	f7ff fc88 	bl	5804 <flashWaitStateControl>
    5ef4:	bd08      	pop	{r3, pc}
    5ef6:	2100      	movs	r1, #0
    5ef8:	f7ff fc84 	bl	5804 <flashWaitStateControl>
    5efc:	e7fa      	b.n	5ef4 <CMU_UpdateWaitStates+0xc>
	...

00005f00 <CMU_ClockDivSet>:
    5f00:	b510      	push	{r4, lr}
    5f02:	3801      	subs	r0, #1
    5f04:	280e      	cmp	r0, #14
    5f06:	d84b      	bhi.n	5fa0 <CMU_ClockDivSet+0xa0>
    5f08:	e8df f000 	tbb	[pc, r0]
    5f0c:	4a392608 	.word	0x4a392608
    5f10:	4a4a4a4a 	.word	0x4a4a4a4a
    5f14:	4a4a4a4a 	.word	0x4a4a4a4a
    5f18:	4a4a      	.short	0x4a4a
    5f1a:	08          	.byte	0x08
    5f1b:	00          	.byte	0x00
    5f1c:	1e4c      	subs	r4, r1, #1
    5f1e:	2c01      	cmp	r4, #1
    5f20:	d901      	bls.n	5f26 <CMU_ClockDivSet+0x26>
    5f22:	2904      	cmp	r1, #4
    5f24:	d112      	bne.n	5f4c <CMU_ClockDivSet+0x4c>
    5f26:	f7ff feaf 	bl	5c88 <waitStateMax>
    5f2a:	f000 f843 	bl	5fb4 <pclkDivMax>
    5f2e:	4a1f      	ldr	r2, [pc, #124]	; (5fac <CMU_ClockDivSet+0xac>)
    5f30:	6f13      	ldr	r3, [r2, #112]	; 0x70
    5f32:	f423 5340 	bic.w	r3, r3, #12288	; 0x3000
    5f36:	ea43 3304 	orr.w	r3, r3, r4, lsl #12
    5f3a:	6713      	str	r3, [r2, #112]	; 0x70
    5f3c:	f000 fbae 	bl	669c <SystemHCLKGet>
    5f40:	2100      	movs	r1, #0
    5f42:	f7ff ffd1 	bl	5ee8 <CMU_UpdateWaitStates>
    5f46:	f000 f83b 	bl	5fc0 <pclkDivOptimize>
    5f4a:	bd10      	pop	{r4, pc}
    5f4c:	f240 6116 	movw	r1, #1558	; 0x616
    5f50:	4817      	ldr	r0, [pc, #92]	; (5fb0 <CMU_ClockDivSet+0xb0>)
    5f52:	f7ff fc55 	bl	5800 <assertEFM>
    5f56:	e7e6      	b.n	5f26 <CMU_ClockDivSet+0x26>
    5f58:	1e4c      	subs	r4, r1, #1
    5f5a:	2c1f      	cmp	r4, #31
    5f5c:	d809      	bhi.n	5f72 <CMU_ClockDivSet+0x72>
    5f5e:	4b13      	ldr	r3, [pc, #76]	; (5fac <CMU_ClockDivSet+0xac>)
    5f60:	f8d3 1090 	ldr.w	r1, [r3, #144]	; 0x90
    5f64:	f021 51f8 	bic.w	r1, r1, #520093696	; 0x1f000000
    5f68:	ea41 6104 	orr.w	r1, r1, r4, lsl #24
    5f6c:	f8c3 1090 	str.w	r1, [r3, #144]	; 0x90
    5f70:	e7eb      	b.n	5f4a <CMU_ClockDivSet+0x4a>
    5f72:	f240 613c 	movw	r1, #1596	; 0x63c
    5f76:	480e      	ldr	r0, [pc, #56]	; (5fb0 <CMU_ClockDivSet+0xb0>)
    5f78:	f7ff fc42 	bl	5800 <assertEFM>
    5f7c:	e7ef      	b.n	5f5e <CMU_ClockDivSet+0x5e>
    5f7e:	1e4c      	subs	r4, r1, #1
    5f80:	2c01      	cmp	r4, #1
    5f82:	d807      	bhi.n	5f94 <CMU_ClockDivSet+0x94>
    5f84:	4b09      	ldr	r3, [pc, #36]	; (5fac <CMU_ClockDivSet+0xac>)
    5f86:	6f19      	ldr	r1, [r3, #112]	; 0x70
    5f88:	f421 6180 	bic.w	r1, r1, #1024	; 0x400
    5f8c:	ea41 2184 	orr.w	r1, r1, r4, lsl #10
    5f90:	6719      	str	r1, [r3, #112]	; 0x70
    5f92:	e7da      	b.n	5f4a <CMU_ClockDivSet+0x4a>
    5f94:	f240 6142 	movw	r1, #1602	; 0x642
    5f98:	4805      	ldr	r0, [pc, #20]	; (5fb0 <CMU_ClockDivSet+0xb0>)
    5f9a:	f7ff fc31 	bl	5800 <assertEFM>
    5f9e:	e7f1      	b.n	5f84 <CMU_ClockDivSet+0x84>
    5fa0:	f44f 61c9 	mov.w	r1, #1608	; 0x648
    5fa4:	4802      	ldr	r0, [pc, #8]	; (5fb0 <CMU_ClockDivSet+0xb0>)
    5fa6:	f7ff fc2b 	bl	5800 <assertEFM>
    5faa:	e7ce      	b.n	5f4a <CMU_ClockDivSet+0x4a>
    5fac:	40008000 	.word	0x40008000
    5fb0:	0000bcdc 	.word	0x0000bcdc

00005fb4 <pclkDivMax>:
    5fb4:	b508      	push	{r3, lr}
    5fb6:	2102      	movs	r1, #2
    5fb8:	2003      	movs	r0, #3
    5fba:	f7ff ffa1 	bl	5f00 <CMU_ClockDivSet>
    5fbe:	bd08      	pop	{r3, pc}

00005fc0 <pclkDivOptimize>:
    5fc0:	b508      	push	{r3, lr}
    5fc2:	2001      	movs	r0, #1
    5fc4:	f7ff fe94 	bl	5cf0 <CMU_ClockFreqGet>
    5fc8:	4b04      	ldr	r3, [pc, #16]	; (5fdc <pclkDivOptimize+0x1c>)
    5fca:	4298      	cmp	r0, r3
    5fcc:	d904      	bls.n	5fd8 <pclkDivOptimize+0x18>
    5fce:	2102      	movs	r1, #2
    5fd0:	2003      	movs	r0, #3
    5fd2:	f7ff ff95 	bl	5f00 <CMU_ClockDivSet>
    5fd6:	bd08      	pop	{r3, pc}
    5fd8:	2101      	movs	r1, #1
    5fda:	e7f9      	b.n	5fd0 <pclkDivOptimize+0x10>
    5fdc:	02faf080 	.word	0x02faf080

00005fe0 <CMU_HFRCODPLLBandSet>:
    5fe0:	b5f8      	push	{r3, r4, r5, r6, r7, lr}
    5fe2:	4605      	mov	r5, r0
    5fe4:	f7ff fc3a 	bl	585c <HFRCODPLLDevinfoGet>
    5fe8:	4604      	mov	r4, r0
    5fea:	1e43      	subs	r3, r0, #1
    5fec:	f113 0f03 	cmn.w	r3, #3
    5ff0:	d829      	bhi.n	6046 <CMU_HFRCODPLLBandSet+0x66>
    5ff2:	4b30      	ldr	r3, [pc, #192]	; (60b4 <CMU_HFRCODPLLBandSet+0xd4>)
    5ff4:	685b      	ldr	r3, [r3, #4]
    5ff6:	2b01      	cmp	r3, #1
    5ff8:	d02b      	beq.n	6052 <CMU_HFRCODPLLBandSet+0x72>
    5ffa:	2000      	movs	r0, #0
    5ffc:	f7ff fef2 	bl	5de4 <CMU_ClockSelectGet>
    6000:	2804      	cmp	r0, #4
    6002:	d02f      	beq.n	6064 <CMU_HFRCODPLLBandSet+0x84>
    6004:	f024 7440 	bic.w	r4, r4, #50331648	; 0x3000000
    6008:	4b2b      	ldr	r3, [pc, #172]	; (60b8 <CMU_HFRCODPLLBandSet+0xd8>)
    600a:	429d      	cmp	r5, r3
    600c:	d02f      	beq.n	606e <CMU_HFRCODPLLBandSet+0x8e>
    600e:	4b2b      	ldr	r3, [pc, #172]	; (60bc <CMU_HFRCODPLLBandSet+0xdc>)
    6010:	429d      	cmp	r5, r3
    6012:	d02f      	beq.n	6074 <CMU_HFRCODPLLBandSet+0x94>
    6014:	4b2a      	ldr	r3, [pc, #168]	; (60c0 <CMU_HFRCODPLLBandSet+0xe0>)
    6016:	68db      	ldr	r3, [r3, #12]
    6018:	f013 0f06 	tst.w	r3, #6
    601c:	d1fa      	bne.n	6014 <CMU_HFRCODPLLBandSet+0x34>
    601e:	4b28      	ldr	r3, [pc, #160]	; (60c0 <CMU_HFRCODPLLBandSet+0xe0>)
    6020:	689f      	ldr	r7, [r3, #8]
    6022:	609c      	str	r4, [r3, #8]
    6024:	f404 14f8 	and.w	r4, r4, #2031616	; 0x1f0000
    6028:	689e      	ldr	r6, [r3, #8]
    602a:	f406 16f8 	and.w	r6, r6, #2031616	; 0x1f0000
    602e:	42b4      	cmp	r4, r6
    6030:	d123      	bne.n	607a <CMU_HFRCODPLLBandSet+0x9a>
    6032:	42b4      	cmp	r4, r6
    6034:	d027      	beq.n	6086 <CMU_HFRCODPLLBandSet+0xa6>
    6036:	4b22      	ldr	r3, [pc, #136]	; (60c0 <CMU_HFRCODPLLBandSet+0xe0>)
    6038:	609f      	str	r7, [r3, #8]
    603a:	2000      	movs	r0, #0
    603c:	f7ff fed2 	bl	5de4 <CMU_ClockSelectGet>
    6040:	2804      	cmp	r0, #4
    6042:	d024      	beq.n	608e <CMU_HFRCODPLLBandSet+0xae>
    6044:	bdf8      	pop	{r3, r4, r5, r6, r7, pc}
    6046:	f640 2171 	movw	r1, #2673	; 0xa71
    604a:	481e      	ldr	r0, [pc, #120]	; (60c4 <CMU_HFRCODPLLBandSet+0xe4>)
    604c:	f7ff fbd8 	bl	5800 <assertEFM>
    6050:	e7cf      	b.n	5ff2 <CMU_HFRCODPLLBandSet+0x12>
    6052:	4b1d      	ldr	r3, [pc, #116]	; (60c8 <CMU_HFRCODPLLBandSet+0xe8>)
    6054:	2201      	movs	r2, #1
    6056:	605a      	str	r2, [r3, #4]
    6058:	4b16      	ldr	r3, [pc, #88]	; (60b4 <CMU_HFRCODPLLBandSet+0xd4>)
    605a:	699b      	ldr	r3, [r3, #24]
    605c:	f013 0f03 	tst.w	r3, #3
    6060:	d1fa      	bne.n	6058 <CMU_HFRCODPLLBandSet+0x78>
    6062:	e7ca      	b.n	5ffa <CMU_HFRCODPLLBandSet+0x1a>
    6064:	f7ff fe10 	bl	5c88 <waitStateMax>
    6068:	f7ff ffa4 	bl	5fb4 <pclkDivMax>
    606c:	e7ca      	b.n	6004 <CMU_HFRCODPLLBandSet+0x24>
    606e:	f044 7400 	orr.w	r4, r4, #33554432	; 0x2000000
    6072:	e7cf      	b.n	6014 <CMU_HFRCODPLLBandSet+0x34>
    6074:	f044 7480 	orr.w	r4, r4, #16777216	; 0x1000000
    6078:	e7cc      	b.n	6014 <CMU_HFRCODPLLBandSet+0x34>
    607a:	f640 21b8 	movw	r1, #2744	; 0xab8
    607e:	4811      	ldr	r0, [pc, #68]	; (60c4 <CMU_HFRCODPLLBandSet+0xe4>)
    6080:	f7ff fbbe 	bl	5800 <assertEFM>
    6084:	e7d5      	b.n	6032 <CMU_HFRCODPLLBandSet+0x52>
    6086:	4628      	mov	r0, r5
    6088:	f000 fae8 	bl	665c <SystemHFRCODPLLClockSet>
    608c:	e7d5      	b.n	603a <CMU_HFRCODPLLBandSet+0x5a>
    608e:	f000 fb05 	bl	669c <SystemHCLKGet>
    6092:	4604      	mov	r4, r0
    6094:	4285      	cmp	r5, r0
    6096:	d306      	bcc.n	60a6 <CMU_HFRCODPLLBandSet+0xc6>
    6098:	2100      	movs	r1, #0
    609a:	4620      	mov	r0, r4
    609c:	f7ff ff24 	bl	5ee8 <CMU_UpdateWaitStates>
    60a0:	f7ff ff8e 	bl	5fc0 <pclkDivOptimize>
    60a4:	e7ce      	b.n	6044 <CMU_HFRCODPLLBandSet+0x64>
    60a6:	f640 21c9 	movw	r1, #2761	; 0xac9
    60aa:	4806      	ldr	r0, [pc, #24]	; (60c4 <CMU_HFRCODPLLBandSet+0xe4>)
    60ac:	f7ff fba8 	bl	5800 <assertEFM>
    60b0:	e7f2      	b.n	6098 <CMU_HFRCODPLLBandSet+0xb8>
    60b2:	bf00      	nop
    60b4:	4001c000 	.word	0x4001c000
    60b8:	000f4240 	.word	0x000f4240
    60bc:	001e8480 	.word	0x001e8480
    60c0:	40010000 	.word	0x40010000
    60c4:	0000bcdc 	.word	0x0000bcdc
    60c8:	4001e000 	.word	0x4001e000

000060cc <CORE_EnterCritical>:
    60cc:	f3ef 8010 	mrs	r0, PRIMASK
    60d0:	b672      	cpsid	i
    60d2:	4770      	bx	lr

000060d4 <CORE_ExitCritical>:
    60d4:	b900      	cbnz	r0, 60d8 <CORE_ExitCritical+0x4>
    60d6:	b662      	cpsie	i
    60d8:	4770      	bx	lr

000060da <CORE_AtomicDisableIrq>:
    60da:	b672      	cpsid	i
    60dc:	4770      	bx	lr

000060de <CORE_EnterAtomic>:
    60de:	f3ef 8010 	mrs	r0, PRIMASK
    60e2:	b672      	cpsid	i
    60e4:	4770      	bx	lr

000060e6 <CORE_ExitAtomic>:
    60e6:	b900      	cbnz	r0, 60ea <CORE_ExitAtomic+0x4>
    60e8:	b662      	cpsie	i
    60ea:	4770      	bx	lr

000060ec <GPIO_PinModeSet>:
    60ec:	b5f8      	push	{r3, r4, r5, r6, r7, lr}
    60ee:	460d      	mov	r5, r1
    60f0:	4616      	mov	r6, r2
    60f2:	461f      	mov	r7, r3
    60f4:	4604      	mov	r4, r0
    60f6:	b148      	cbz	r0, 610c <GPIO_PinModeSet+0x20>
    60f8:	2801      	cmp	r0, #1
    60fa:	d018      	beq.n	612e <GPIO_PinModeSet+0x42>
    60fc:	2802      	cmp	r0, #2
    60fe:	d018      	beq.n	6132 <GPIO_PinModeSet+0x46>
    6100:	2803      	cmp	r0, #3
    6102:	d001      	beq.n	6108 <GPIO_PinModeSet+0x1c>
    6104:	2300      	movs	r3, #0
    6106:	e002      	b.n	610e <GPIO_PinModeSet+0x22>
    6108:	231f      	movs	r3, #31
    610a:	e000      	b.n	610e <GPIO_PinModeSet+0x22>
    610c:	237f      	movs	r3, #127	; 0x7f
    610e:	40eb      	lsrs	r3, r5
    6110:	f013 0f01 	tst.w	r3, #1
    6114:	d00f      	beq.n	6136 <GPIO_PinModeSet+0x4a>
    6116:	b33e      	cbz	r6, 6168 <GPIO_PinModeSet+0x7c>
    6118:	2f00      	cmp	r7, #0
    611a:	d052      	beq.n	61c2 <GPIO_PinModeSet+0xd6>
    611c:	b19c      	cbz	r4, 6146 <GPIO_PinModeSet+0x5a>
    611e:	2c01      	cmp	r4, #1
    6120:	d045      	beq.n	61ae <GPIO_PinModeSet+0xc2>
    6122:	2c02      	cmp	r4, #2
    6124:	d045      	beq.n	61b2 <GPIO_PinModeSet+0xc6>
    6126:	2c03      	cmp	r4, #3
    6128:	d00b      	beq.n	6142 <GPIO_PinModeSet+0x56>
    612a:	2300      	movs	r3, #0
    612c:	e00c      	b.n	6148 <GPIO_PinModeSet+0x5c>
    612e:	2303      	movs	r3, #3
    6130:	e7ed      	b.n	610e <GPIO_PinModeSet+0x22>
    6132:	233f      	movs	r3, #63	; 0x3f
    6134:	e7eb      	b.n	610e <GPIO_PinModeSet+0x22>
    6136:	f240 111d 	movw	r1, #285	; 0x11d
    613a:	4863      	ldr	r0, [pc, #396]	; (62c8 <GPIO_PinModeSet+0x1dc>)
    613c:	f7ff fb60 	bl	5800 <assertEFM>
    6140:	e7e9      	b.n	6116 <GPIO_PinModeSet+0x2a>
    6142:	231f      	movs	r3, #31
    6144:	e000      	b.n	6148 <GPIO_PinModeSet+0x5c>
    6146:	237f      	movs	r3, #127	; 0x7f
    6148:	40eb      	lsrs	r3, r5
    614a:	f013 0f01 	tst.w	r3, #1
    614e:	d032      	beq.n	61b6 <GPIO_PinModeSet+0xca>
    6150:	2201      	movs	r2, #1
    6152:	40aa      	lsls	r2, r5
    6154:	eb04 0344 	add.w	r3, r4, r4, lsl #1
    6158:	011b      	lsls	r3, r3, #4
    615a:	f103 4380 	add.w	r3, r3, #1073741824	; 0x40000000
    615e:	f503 3370 	add.w	r3, r3, #245760	; 0x3c000
    6162:	f241 0110 	movw	r1, #4112	; 0x1010
    6166:	505a      	str	r2, [r3, r1]
    6168:	2d07      	cmp	r5, #7
    616a:	d851      	bhi.n	6210 <GPIO_PinModeSet+0x124>
    616c:	4a57      	ldr	r2, [pc, #348]	; (62cc <GPIO_PinModeSet+0x1e0>)
    616e:	eb04 0344 	add.w	r3, r4, r4, lsl #1
    6172:	eb02 1303 	add.w	r3, r2, r3, lsl #4
    6176:	685b      	ldr	r3, [r3, #4]
    6178:	00a9      	lsls	r1, r5, #2
    617a:	200f      	movs	r0, #15
    617c:	4088      	lsls	r0, r1
    617e:	ea23 0300 	bic.w	r3, r3, r0
    6182:	fa06 f101 	lsl.w	r1, r6, r1
    6186:	430b      	orrs	r3, r1
    6188:	eb04 0144 	add.w	r1, r4, r4, lsl #1
    618c:	eb02 1201 	add.w	r2, r2, r1, lsl #4
    6190:	6053      	str	r3, [r2, #4]
    6192:	2e00      	cmp	r6, #0
    6194:	d166      	bne.n	6264 <GPIO_PinModeSet+0x178>
    6196:	2f00      	cmp	r7, #0
    6198:	d06f      	beq.n	627a <GPIO_PinModeSet+0x18e>
    619a:	2c00      	cmp	r4, #0
    619c:	d050      	beq.n	6240 <GPIO_PinModeSet+0x154>
    619e:	2c01      	cmp	r4, #1
    61a0:	d061      	beq.n	6266 <GPIO_PinModeSet+0x17a>
    61a2:	2c02      	cmp	r4, #2
    61a4:	d061      	beq.n	626a <GPIO_PinModeSet+0x17e>
    61a6:	2c03      	cmp	r4, #3
    61a8:	d048      	beq.n	623c <GPIO_PinModeSet+0x150>
    61aa:	2300      	movs	r3, #0
    61ac:	e049      	b.n	6242 <GPIO_PinModeSet+0x156>
    61ae:	2303      	movs	r3, #3
    61b0:	e7ca      	b.n	6148 <GPIO_PinModeSet+0x5c>
    61b2:	233f      	movs	r3, #63	; 0x3f
    61b4:	e7c8      	b.n	6148 <GPIO_PinModeSet+0x5c>
    61b6:	f44f 6182 	mov.w	r1, #1040	; 0x410
    61ba:	4845      	ldr	r0, [pc, #276]	; (62d0 <GPIO_PinModeSet+0x1e4>)
    61bc:	f7ff fb20 	bl	5800 <assertEFM>
    61c0:	e7c6      	b.n	6150 <GPIO_PinModeSet+0x64>
    61c2:	b14c      	cbz	r4, 61d8 <GPIO_PinModeSet+0xec>
    61c4:	2c01      	cmp	r4, #1
    61c6:	d019      	beq.n	61fc <GPIO_PinModeSet+0x110>
    61c8:	2c02      	cmp	r4, #2
    61ca:	d019      	beq.n	6200 <GPIO_PinModeSet+0x114>
    61cc:	2c03      	cmp	r4, #3
    61ce:	d001      	beq.n	61d4 <GPIO_PinModeSet+0xe8>
    61d0:	463b      	mov	r3, r7
    61d2:	e002      	b.n	61da <GPIO_PinModeSet+0xee>
    61d4:	231f      	movs	r3, #31
    61d6:	e000      	b.n	61da <GPIO_PinModeSet+0xee>
    61d8:	237f      	movs	r3, #127	; 0x7f
    61da:	40eb      	lsrs	r3, r5
    61dc:	f013 0f01 	tst.w	r3, #1
    61e0:	d010      	beq.n	6204 <GPIO_PinModeSet+0x118>
    61e2:	2201      	movs	r2, #1
    61e4:	40aa      	lsls	r2, r5
    61e6:	eb04 0344 	add.w	r3, r4, r4, lsl #1
    61ea:	011b      	lsls	r3, r3, #4
    61ec:	f103 4380 	add.w	r3, r3, #1073741824	; 0x40000000
    61f0:	f503 3370 	add.w	r3, r3, #245760	; 0x3c000
    61f4:	f242 0110 	movw	r1, #8208	; 0x2010
    61f8:	505a      	str	r2, [r3, r1]
    61fa:	e7b5      	b.n	6168 <GPIO_PinModeSet+0x7c>
    61fc:	2303      	movs	r3, #3
    61fe:	e7ec      	b.n	61da <GPIO_PinModeSet+0xee>
    6200:	233f      	movs	r3, #63	; 0x3f
    6202:	e7ea      	b.n	61da <GPIO_PinModeSet+0xee>
    6204:	f240 31e1 	movw	r1, #993	; 0x3e1
    6208:	4831      	ldr	r0, [pc, #196]	; (62d0 <GPIO_PinModeSet+0x1e4>)
    620a:	f7ff faf9 	bl	5800 <assertEFM>
    620e:	e7e8      	b.n	61e2 <GPIO_PinModeSet+0xf6>
    6210:	492e      	ldr	r1, [pc, #184]	; (62cc <GPIO_PinModeSet+0x1e0>)
    6212:	eb04 0344 	add.w	r3, r4, r4, lsl #1
    6216:	eb01 1303 	add.w	r3, r1, r3, lsl #4
    621a:	68da      	ldr	r2, [r3, #12]
    621c:	f1a5 0308 	sub.w	r3, r5, #8
    6220:	009b      	lsls	r3, r3, #2
    6222:	200f      	movs	r0, #15
    6224:	4098      	lsls	r0, r3
    6226:	ea22 0200 	bic.w	r2, r2, r0
    622a:	fa06 f303 	lsl.w	r3, r6, r3
    622e:	4313      	orrs	r3, r2
    6230:	eb04 0244 	add.w	r2, r4, r4, lsl #1
    6234:	eb01 1102 	add.w	r1, r1, r2, lsl #4
    6238:	60cb      	str	r3, [r1, #12]
    623a:	e7aa      	b.n	6192 <GPIO_PinModeSet+0xa6>
    623c:	231f      	movs	r3, #31
    623e:	e000      	b.n	6242 <GPIO_PinModeSet+0x156>
    6240:	237f      	movs	r3, #127	; 0x7f
    6242:	40eb      	lsrs	r3, r5
    6244:	f013 0f01 	tst.w	r3, #1
    6248:	d011      	beq.n	626e <GPIO_PinModeSet+0x182>
    624a:	2101      	movs	r1, #1
    624c:	fa01 f505 	lsl.w	r5, r1, r5
    6250:	eb04 0444 	add.w	r4, r4, r4, lsl #1
    6254:	0124      	lsls	r4, r4, #4
    6256:	f104 4480 	add.w	r4, r4, #1073741824	; 0x40000000
    625a:	f504 3470 	add.w	r4, r4, #245760	; 0x3c000
    625e:	f241 0310 	movw	r3, #4112	; 0x1010
    6262:	50e5      	str	r5, [r4, r3]
    6264:	bdf8      	pop	{r3, r4, r5, r6, r7, pc}
    6266:	2303      	movs	r3, #3
    6268:	e7eb      	b.n	6242 <GPIO_PinModeSet+0x156>
    626a:	233f      	movs	r3, #63	; 0x3f
    626c:	e7e9      	b.n	6242 <GPIO_PinModeSet+0x156>
    626e:	f44f 6182 	mov.w	r1, #1040	; 0x410
    6272:	4817      	ldr	r0, [pc, #92]	; (62d0 <GPIO_PinModeSet+0x1e4>)
    6274:	f7ff fac4 	bl	5800 <assertEFM>
    6278:	e7e7      	b.n	624a <GPIO_PinModeSet+0x15e>
    627a:	b13c      	cbz	r4, 628c <GPIO_PinModeSet+0x1a0>
    627c:	2c01      	cmp	r4, #1
    627e:	d018      	beq.n	62b2 <GPIO_PinModeSet+0x1c6>
    6280:	2c02      	cmp	r4, #2
    6282:	d018      	beq.n	62b6 <GPIO_PinModeSet+0x1ca>
    6284:	2c03      	cmp	r4, #3
    6286:	d102      	bne.n	628e <GPIO_PinModeSet+0x1a2>
    6288:	271f      	movs	r7, #31
    628a:	e000      	b.n	628e <GPIO_PinModeSet+0x1a2>
    628c:	277f      	movs	r7, #127	; 0x7f
    628e:	40ef      	lsrs	r7, r5
    6290:	f017 0f01 	tst.w	r7, #1
    6294:	d011      	beq.n	62ba <GPIO_PinModeSet+0x1ce>
    6296:	2101      	movs	r1, #1
    6298:	fa01 f505 	lsl.w	r5, r1, r5
    629c:	eb04 0444 	add.w	r4, r4, r4, lsl #1
    62a0:	0124      	lsls	r4, r4, #4
    62a2:	f104 4480 	add.w	r4, r4, #1073741824	; 0x40000000
    62a6:	f504 3470 	add.w	r4, r4, #245760	; 0x3c000
    62aa:	f242 0310 	movw	r3, #8208	; 0x2010
    62ae:	50e5      	str	r5, [r4, r3]
    62b0:	e7d8      	b.n	6264 <GPIO_PinModeSet+0x178>
    62b2:	2703      	movs	r7, #3
    62b4:	e7eb      	b.n	628e <GPIO_PinModeSet+0x1a2>
    62b6:	273f      	movs	r7, #63	; 0x3f
    62b8:	e7e9      	b.n	628e <GPIO_PinModeSet+0x1a2>
    62ba:	f240 31e1 	movw	r1, #993	; 0x3e1
    62be:	4804      	ldr	r0, [pc, #16]	; (62d0 <GPIO_PinModeSet+0x1e4>)
    62c0:	f7ff fa9e 	bl	5800 <assertEFM>
    62c4:	e7e7      	b.n	6296 <GPIO_PinModeSet+0x1aa>
    62c6:	bf00      	nop
    62c8:	0000bd24 	.word	0x0000bd24
    62cc:	4003c000 	.word	0x4003c000
    62d0:	0000bd70 	.word	0x0000bd70

000062d4 <SYSTEM_ChipRevisionGet>:
    62d4:	4b05      	ldr	r3, [pc, #20]	; (62ec <SYSTEM_ChipRevisionGet+0x18>)
    62d6:	695b      	ldr	r3, [r3, #20]
    62d8:	f3c3 1285 	ubfx	r2, r3, #6, #6
    62dc:	7082      	strb	r2, [r0, #2]
    62de:	f003 023f 	and.w	r2, r3, #63	; 0x3f
    62e2:	7042      	strb	r2, [r0, #1]
    62e4:	0b1b      	lsrs	r3, r3, #12
    62e6:	7003      	strb	r3, [r0, #0]
    62e8:	4770      	bx	lr
    62ea:	bf00      	nop
    62ec:	4007c000 	.word	0x4007c000

000062f0 <prsRxInput>:
    62f0:	4b0e      	ldr	r3, [pc, #56]	; (632c <prsRxInput+0x3c>)
    62f2:	4298      	cmp	r0, r3
    62f4:	d00a      	beq.n	630c <prsRxInput+0x1c>
    62f6:	4b0e      	ldr	r3, [pc, #56]	; (6330 <prsRxInput+0x40>)
    62f8:	4298      	cmp	r0, r3
    62fa:	d00c      	beq.n	6316 <prsRxInput+0x26>
    62fc:	4b0d      	ldr	r3, [pc, #52]	; (6334 <prsRxInput+0x44>)
    62fe:	4298      	cmp	r0, r3
    6300:	d00e      	beq.n	6320 <prsRxInput+0x30>
    6302:	6dc3      	ldr	r3, [r0, #92]	; 0x5c
    6304:	f043 0380 	orr.w	r3, r3, #128	; 0x80
    6308:	65c3      	str	r3, [r0, #92]	; 0x5c
    630a:	4770      	bx	lr
    630c:	f5a3 3300 	sub.w	r3, r3, #131072	; 0x20000
    6310:	f8c3 1184 	str.w	r1, [r3, #388]	; 0x184
    6314:	e7f5      	b.n	6302 <prsRxInput+0x12>
    6316:	f5a3 3310 	sub.w	r3, r3, #147456	; 0x24000
    631a:	f8c3 1194 	str.w	r1, [r3, #404]	; 0x194
    631e:	e7f0      	b.n	6302 <prsRxInput+0x12>
    6320:	f5a3 3320 	sub.w	r3, r3, #163840	; 0x28000
    6324:	f8c3 11a4 	str.w	r1, [r3, #420]	; 0x1a4
    6328:	e7eb      	b.n	6302 <prsRxInput+0x12>
    632a:	bf00      	nop
    632c:	40058000 	.word	0x40058000
    6330:	4005c000 	.word	0x4005c000
    6334:	40060000 	.word	0x40060000

00006338 <USART_BaudrateAsyncSet>:
    6338:	b5f8      	push	{r3, r4, r5, r6, r7, lr}
    633a:	4605      	mov	r5, r0
    633c:	460e      	mov	r6, r1
    633e:	461c      	mov	r4, r3
    6340:	4617      	mov	r7, r2
    6342:	b15a      	cbz	r2, 635c <USART_BaudrateAsyncSet+0x24>
    6344:	b186      	cbz	r6, 6368 <USART_BaudrateAsyncSet+0x30>
    6346:	2c40      	cmp	r4, #64	; 0x40
    6348:	d044      	beq.n	63d4 <USART_BaudrateAsyncSet+0x9c>
    634a:	d812      	bhi.n	6372 <USART_BaudrateAsyncSet+0x3a>
    634c:	b1c4      	cbz	r4, 6380 <USART_BaudrateAsyncSet+0x48>
    634e:	2c20      	cmp	r4, #32
    6350:	d156      	bne.n	6400 <USART_BaudrateAsyncSet+0xc8>
    6352:	ebb7 0fd6 	cmp.w	r7, r6, lsr #3
    6356:	d836      	bhi.n	63c6 <USART_BaudrateAsyncSet+0x8e>
    6358:	2308      	movs	r3, #8
    635a:	e015      	b.n	6388 <USART_BaudrateAsyncSet+0x50>
    635c:	f44f 71a1 	mov.w	r1, #322	; 0x142
    6360:	482d      	ldr	r0, [pc, #180]	; (6418 <USART_BaudrateAsyncSet+0xe0>)
    6362:	f7ff fa4d 	bl	5800 <assertEFM>
    6366:	e7ed      	b.n	6344 <USART_BaudrateAsyncSet+0xc>
    6368:	2003      	movs	r0, #3
    636a:	f7ff fcc1 	bl	5cf0 <CMU_ClockFreqGet>
    636e:	4606      	mov	r6, r0
    6370:	e7e9      	b.n	6346 <USART_BaudrateAsyncSet+0xe>
    6372:	2c60      	cmp	r4, #96	; 0x60
    6374:	d144      	bne.n	6400 <USART_BaudrateAsyncSet+0xc8>
    6376:	ebb7 0f96 	cmp.w	r7, r6, lsr #2
    637a:	d83a      	bhi.n	63f2 <USART_BaudrateAsyncSet+0xba>
    637c:	2304      	movs	r3, #4
    637e:	e003      	b.n	6388 <USART_BaudrateAsyncSet+0x50>
    6380:	ebb7 1f16 	cmp.w	r7, r6, lsr #4
    6384:	d818      	bhi.n	63b8 <USART_BaudrateAsyncSet+0x80>
    6386:	2310      	movs	r3, #16
    6388:	fb07 f103 	mul.w	r1, r7, r3
    638c:	084b      	lsrs	r3, r1, #1
    638e:	eb03 1346 	add.w	r3, r3, r6, lsl #5
    6392:	fbb3 f3f1 	udiv	r3, r3, r1
    6396:	3b20      	subs	r3, #32
    6398:	00de      	lsls	r6, r3, #3
    639a:	4a20      	ldr	r2, [pc, #128]	; (641c <USART_BaudrateAsyncSet+0xe4>)
    639c:	ebb2 0fc3 	cmp.w	r2, r3, lsl #3
    63a0:	d334      	bcc.n	640c <USART_BaudrateAsyncSet+0xd4>
    63a2:	4a1e      	ldr	r2, [pc, #120]	; (641c <USART_BaudrateAsyncSet+0xe4>)
    63a4:	4032      	ands	r2, r6
    63a6:	68ab      	ldr	r3, [r5, #8]
    63a8:	f023 0360 	bic.w	r3, r3, #96	; 0x60
    63ac:	60ab      	str	r3, [r5, #8]
    63ae:	68ab      	ldr	r3, [r5, #8]
    63b0:	431c      	orrs	r4, r3
    63b2:	60ac      	str	r4, [r5, #8]
    63b4:	61ea      	str	r2, [r5, #28]
    63b6:	bdf8      	pop	{r3, r4, r5, r6, r7, pc}
    63b8:	f44f 71ba 	mov.w	r1, #372	; 0x174
    63bc:	4816      	ldr	r0, [pc, #88]	; (6418 <USART_BaudrateAsyncSet+0xe0>)
    63be:	f7ff fa1f 	bl	5800 <assertEFM>
    63c2:	2310      	movs	r3, #16
    63c4:	e7e0      	b.n	6388 <USART_BaudrateAsyncSet+0x50>
    63c6:	f240 1179 	movw	r1, #377	; 0x179
    63ca:	4813      	ldr	r0, [pc, #76]	; (6418 <USART_BaudrateAsyncSet+0xe0>)
    63cc:	f7ff fa18 	bl	5800 <assertEFM>
    63d0:	2308      	movs	r3, #8
    63d2:	e7d9      	b.n	6388 <USART_BaudrateAsyncSet+0x50>
    63d4:	4b12      	ldr	r3, [pc, #72]	; (6420 <USART_BaudrateAsyncSet+0xe8>)
    63d6:	fba3 2306 	umull	r2, r3, r3, r6
    63da:	ebb7 0f93 	cmp.w	r7, r3, lsr #2
    63de:	d801      	bhi.n	63e4 <USART_BaudrateAsyncSet+0xac>
    63e0:	2306      	movs	r3, #6
    63e2:	e7d1      	b.n	6388 <USART_BaudrateAsyncSet+0x50>
    63e4:	f44f 71bf 	mov.w	r1, #382	; 0x17e
    63e8:	480b      	ldr	r0, [pc, #44]	; (6418 <USART_BaudrateAsyncSet+0xe0>)
    63ea:	f7ff fa09 	bl	5800 <assertEFM>
    63ee:	2306      	movs	r3, #6
    63f0:	e7ca      	b.n	6388 <USART_BaudrateAsyncSet+0x50>
    63f2:	f240 1183 	movw	r1, #387	; 0x183
    63f6:	4808      	ldr	r0, [pc, #32]	; (6418 <USART_BaudrateAsyncSet+0xe0>)
    63f8:	f7ff fa02 	bl	5800 <assertEFM>
    63fc:	2304      	movs	r3, #4
    63fe:	e7c3      	b.n	6388 <USART_BaudrateAsyncSet+0x50>
    6400:	f240 1189 	movw	r1, #393	; 0x189
    6404:	4804      	ldr	r0, [pc, #16]	; (6418 <USART_BaudrateAsyncSet+0xe0>)
    6406:	f7ff f9fb 	bl	5800 <assertEFM>
    640a:	e7d4      	b.n	63b6 <USART_BaudrateAsyncSet+0x7e>
    640c:	f240 119f 	movw	r1, #415	; 0x19f
    6410:	4801      	ldr	r0, [pc, #4]	; (6418 <USART_BaudrateAsyncSet+0xe0>)
    6412:	f7ff f9f5 	bl	5800 <assertEFM>
    6416:	e7c4      	b.n	63a2 <USART_BaudrateAsyncSet+0x6a>
    6418:	0000bdbc 	.word	0x0000bdbc
    641c:	007ffff8 	.word	0x007ffff8
    6420:	aaaaaaab 	.word	0xaaaaaaab

00006424 <USART_Reset>:
    6424:	b510      	push	{r4, lr}
    6426:	4604      	mov	r4, r0
    6428:	4b21      	ldr	r3, [pc, #132]	; (64b0 <USART_Reset+0x8c>)
    642a:	4298      	cmp	r0, r3
    642c:	d00c      	beq.n	6448 <USART_Reset+0x24>
    642e:	f503 4380 	add.w	r3, r3, #16384	; 0x4000
    6432:	4298      	cmp	r0, r3
    6434:	d008      	beq.n	6448 <USART_Reset+0x24>
    6436:	f503 4380 	add.w	r3, r3, #16384	; 0x4000
    643a:	4298      	cmp	r0, r3
    643c:	d004      	beq.n	6448 <USART_Reset+0x24>
    643e:	f240 4129 	movw	r1, #1065	; 0x429
    6442:	481c      	ldr	r0, [pc, #112]	; (64b4 <USART_Reset+0x90>)
    6444:	f7ff f9dc 	bl	5800 <assertEFM>
    6448:	f504 5380 	add.w	r3, r4, #4096	; 0x1000
    644c:	2201      	movs	r2, #1
    644e:	605a      	str	r2, [r3, #4]
    6450:	f640 63aa 	movw	r3, #3754	; 0xeaa
    6454:	6163      	str	r3, [r4, #20]
    6456:	2300      	movs	r3, #0
    6458:	60a3      	str	r3, [r4, #8]
    645a:	65e3      	str	r3, [r4, #92]	; 0x5c
    645c:	f241 0205 	movw	r2, #4101	; 0x1005
    6460:	60e2      	str	r2, [r4, #12]
    6462:	6123      	str	r3, [r4, #16]
    6464:	61e3      	str	r3, [r4, #28]
    6466:	64e3      	str	r3, [r4, #76]	; 0x4c
    6468:	f504 5200 	add.w	r2, r4, #8192	; 0x2000
    646c:	4912      	ldr	r1, [pc, #72]	; (64b8 <USART_Reset+0x94>)
    646e:	6491      	str	r1, [r2, #72]	; 0x48
    6470:	65a3      	str	r3, [r4, #88]	; 0x58
    6472:	4b0f      	ldr	r3, [pc, #60]	; (64b0 <USART_Reset+0x8c>)
    6474:	429c      	cmp	r4, r3
    6476:	d007      	beq.n	6488 <USART_Reset+0x64>
    6478:	f503 4380 	add.w	r3, r3, #16384	; 0x4000
    647c:	429c      	cmp	r4, r3
    647e:	d003      	beq.n	6488 <USART_Reset+0x64>
    6480:	f503 4380 	add.w	r3, r3, #16384	; 0x4000
    6484:	429c      	cmp	r4, r3
    6486:	d101      	bne.n	648c <USART_Reset+0x68>
    6488:	2300      	movs	r3, #0
    648a:	6523      	str	r3, [r4, #80]	; 0x50
    648c:	4b08      	ldr	r3, [pc, #32]	; (64b0 <USART_Reset+0x8c>)
    648e:	429c      	cmp	r4, r3
    6490:	d007      	beq.n	64a2 <USART_Reset+0x7e>
    6492:	f503 4380 	add.w	r3, r3, #16384	; 0x4000
    6496:	429c      	cmp	r4, r3
    6498:	d003      	beq.n	64a2 <USART_Reset+0x7e>
    649a:	f503 4380 	add.w	r3, r3, #16384	; 0x4000
    649e:	429c      	cmp	r4, r3
    64a0:	d101      	bne.n	64a6 <USART_Reset+0x82>
    64a2:	2300      	movs	r3, #0
    64a4:	6563      	str	r3, [r4, #84]	; 0x54
    64a6:	f504 5400 	add.w	r4, r4, #8192	; 0x2000
    64aa:	2301      	movs	r3, #1
    64ac:	6063      	str	r3, [r4, #4]
    64ae:	bd10      	pop	{r4, pc}
    64b0:	40058000 	.word	0x40058000
    64b4:	0000bdbc 	.word	0x0000bdbc
    64b8:	0001ffff 	.word	0x0001ffff

000064bc <USART_InitAsync>:
    64bc:	b538      	push	{r3, r4, r5, lr}
    64be:	4605      	mov	r5, r0
    64c0:	460c      	mov	r4, r1
    64c2:	4b48      	ldr	r3, [pc, #288]	; (65e4 <USART_InitAsync+0x128>)
    64c4:	4298      	cmp	r0, r3
    64c6:	d00c      	beq.n	64e2 <USART_InitAsync+0x26>
    64c8:	f503 4380 	add.w	r3, r3, #16384	; 0x4000
    64cc:	4298      	cmp	r0, r3
    64ce:	d008      	beq.n	64e2 <USART_InitAsync+0x26>
    64d0:	f503 4380 	add.w	r3, r3, #16384	; 0x4000
    64d4:	4298      	cmp	r0, r3
    64d6:	d004      	beq.n	64e2 <USART_InitAsync+0x26>
    64d8:	f240 21ed 	movw	r1, #749	; 0x2ed
    64dc:	4842      	ldr	r0, [pc, #264]	; (65e8 <USART_InitAsync+0x12c>)
    64de:	f7ff f98f 	bl	5800 <assertEFM>
    64e2:	4628      	mov	r0, r5
    64e4:	f7ff ff9e 	bl	6424 <USART_Reset>
    64e8:	f505 5380 	add.w	r3, r5, #4096	; 0x1000
    64ec:	2201      	movs	r2, #1
    64ee:	605a      	str	r2, [r3, #4]
    64f0:	7ca3      	ldrb	r3, [r4, #18]
    64f2:	b11b      	cbz	r3, 64fc <USART_InitAsync+0x40>
    64f4:	68ab      	ldr	r3, [r5, #8]
    64f6:	f043 4380 	orr.w	r3, r3, #1073741824	; 0x40000000
    64fa:	60ab      	str	r3, [r5, #8]
    64fc:	7ce3      	ldrb	r3, [r4, #19]
    64fe:	2b00      	cmp	r3, #0
    6500:	d140      	bne.n	6584 <USART_InitAsync+0xc8>
    6502:	7b63      	ldrb	r3, [r4, #13]
    6504:	8a22      	ldrh	r2, [r4, #16]
    6506:	4313      	orrs	r3, r2
    6508:	89e2      	ldrh	r2, [r4, #14]
    650a:	4313      	orrs	r3, r2
    650c:	60eb      	str	r3, [r5, #12]
    650e:	7b23      	ldrb	r3, [r4, #12]
    6510:	68a2      	ldr	r2, [r4, #8]
    6512:	6861      	ldr	r1, [r4, #4]
    6514:	4628      	mov	r0, r5
    6516:	f7ff ff0f 	bl	6338 <USART_BaudrateAsyncSet>
    651a:	7d63      	ldrb	r3, [r4, #21]
    651c:	b11b      	cbz	r3, 6526 <USART_InitAsync+0x6a>
    651e:	68ab      	ldr	r3, [r5, #8]
    6520:	f443 3380 	orr.w	r3, r3, #65536	; 0x10000
    6524:	60ab      	str	r3, [r5, #8]
    6526:	7da3      	ldrb	r3, [r4, #22]
    6528:	071b      	lsls	r3, r3, #28
    652a:	f003 43e0 	and.w	r3, r3, #1879048192	; 0x70000000
    652e:	7de2      	ldrb	r2, [r4, #23]
    6530:	0512      	lsls	r2, r2, #20
    6532:	f402 02e0 	and.w	r2, r2, #7340032	; 0x700000
    6536:	4313      	orrs	r3, r2
    6538:	65ab      	str	r3, [r5, #88]	; 0x58
    653a:	7e23      	ldrb	r3, [r4, #24]
    653c:	3b02      	subs	r3, #2
    653e:	b2db      	uxtb	r3, r3
    6540:	2b01      	cmp	r3, #1
    6542:	d924      	bls.n	658e <USART_InitAsync+0xd2>
    6544:	4b27      	ldr	r3, [pc, #156]	; (65e4 <USART_InitAsync+0x128>)
    6546:	429d      	cmp	r5, r3
    6548:	d040      	beq.n	65cc <USART_InitAsync+0x110>
    654a:	f503 4380 	add.w	r3, r3, #16384	; 0x4000
    654e:	429d      	cmp	r5, r3
    6550:	d03e      	beq.n	65d0 <USART_InitAsync+0x114>
    6552:	f503 4380 	add.w	r3, r3, #16384	; 0x4000
    6556:	429d      	cmp	r5, r3
    6558:	d036      	beq.n	65c8 <USART_InitAsync+0x10c>
    655a:	f04f 33ff 	mov.w	r3, #4294967295	; 0xffffffff
    655e:	015b      	lsls	r3, r3, #5
    6560:	f103 4380 	add.w	r3, r3, #1073741824	; 0x40000000
    6564:	f503 3370 	add.w	r3, r3, #245760	; 0x3c000
    6568:	f242 52ac 	movw	r2, #9644	; 0x25ac
    656c:	2102      	movs	r1, #2
    656e:	5099      	str	r1, [r3, r2]
    6570:	7e23      	ldrb	r3, [r4, #24]
    6572:	2b01      	cmp	r3, #1
    6574:	d02e      	beq.n	65d4 <USART_InitAsync+0x118>
    6576:	2b03      	cmp	r3, #3
    6578:	d02c      	beq.n	65d4 <USART_InitAsync+0x118>
    657a:	f505 5300 	add.w	r3, r5, #8192	; 0x2000
    657e:	2204      	movs	r2, #4
    6580:	65da      	str	r2, [r3, #92]	; 0x5c
    6582:	e02b      	b.n	65dc <USART_InitAsync+0x120>
    6584:	7d21      	ldrb	r1, [r4, #20]
    6586:	4628      	mov	r0, r5
    6588:	f7ff feb2 	bl	62f0 <prsRxInput>
    658c:	e7b9      	b.n	6502 <USART_InitAsync+0x46>
    658e:	4b15      	ldr	r3, [pc, #84]	; (65e4 <USART_InitAsync+0x128>)
    6590:	429d      	cmp	r5, r3
    6592:	d015      	beq.n	65c0 <USART_InitAsync+0x104>
    6594:	f503 4380 	add.w	r3, r3, #16384	; 0x4000
    6598:	429d      	cmp	r5, r3
    659a:	d013      	beq.n	65c4 <USART_InitAsync+0x108>
    659c:	f503 4380 	add.w	r3, r3, #16384	; 0x4000
    65a0:	429d      	cmp	r5, r3
    65a2:	d00b      	beq.n	65bc <USART_InitAsync+0x100>
    65a4:	f04f 33ff 	mov.w	r3, #4294967295	; 0xffffffff
    65a8:	015b      	lsls	r3, r3, #5
    65aa:	f103 4380 	add.w	r3, r3, #1073741824	; 0x40000000
    65ae:	f503 3370 	add.w	r3, r3, #245760	; 0x3c000
    65b2:	f241 52ac 	movw	r2, #5548	; 0x15ac
    65b6:	2102      	movs	r1, #2
    65b8:	5099      	str	r1, [r3, r2]
    65ba:	e7d9      	b.n	6570 <USART_InitAsync+0xb4>
    65bc:	2302      	movs	r3, #2
    65be:	e7f3      	b.n	65a8 <USART_InitAsync+0xec>
    65c0:	2300      	movs	r3, #0
    65c2:	e7f1      	b.n	65a8 <USART_InitAsync+0xec>
    65c4:	2301      	movs	r3, #1
    65c6:	e7ef      	b.n	65a8 <USART_InitAsync+0xec>
    65c8:	2302      	movs	r3, #2
    65ca:	e7c8      	b.n	655e <USART_InitAsync+0xa2>
    65cc:	2300      	movs	r3, #0
    65ce:	e7c6      	b.n	655e <USART_InitAsync+0xa2>
    65d0:	2301      	movs	r3, #1
    65d2:	e7c4      	b.n	655e <USART_InitAsync+0xa2>
    65d4:	f505 5380 	add.w	r3, r5, #4096	; 0x1000
    65d8:	2204      	movs	r2, #4
    65da:	65da      	str	r2, [r3, #92]	; 0x5c
    65dc:	7823      	ldrb	r3, [r4, #0]
    65de:	616b      	str	r3, [r5, #20]
    65e0:	bd38      	pop	{r3, r4, r5, pc}
    65e2:	bf00      	nop
    65e4:	40058000 	.word	0x40058000
    65e8:	0000bdbc 	.word	0x0000bdbc

000065ec <Default_Handler>:
    65ec:	e7fe      	b.n	65ec <Default_Handler>
	...

000065f0 <Reset_Handler>:
    65f0:	b508      	push	{r3, lr}
    65f2:	f000 f81f 	bl	6634 <SystemInit>
    65f6:	4b0a      	ldr	r3, [pc, #40]	; (6620 <Reset_Handler+0x30>)
    65f8:	4a0a      	ldr	r2, [pc, #40]	; (6624 <Reset_Handler+0x34>)
    65fa:	e003      	b.n	6604 <Reset_Handler+0x14>
    65fc:	f852 1b04 	ldr.w	r1, [r2], #4
    6600:	f843 1b04 	str.w	r1, [r3], #4
    6604:	4908      	ldr	r1, [pc, #32]	; (6628 <Reset_Handler+0x38>)
    6606:	428b      	cmp	r3, r1
    6608:	d3f8      	bcc.n	65fc <Reset_Handler+0xc>
    660a:	4b08      	ldr	r3, [pc, #32]	; (662c <Reset_Handler+0x3c>)
    660c:	e002      	b.n	6614 <Reset_Handler+0x24>
    660e:	2200      	movs	r2, #0
    6610:	f843 2b04 	str.w	r2, [r3], #4
    6614:	4a06      	ldr	r2, [pc, #24]	; (6630 <Reset_Handler+0x40>)
    6616:	4293      	cmp	r3, r2
    6618:	d3f9      	bcc.n	660e <Reset_Handler+0x1e>
    661a:	f7fd fd8b 	bl	4134 <main>
    661e:	bf00      	nop
    6620:	20000000 	.word	0x20000000
    6624:	0000ddbc 	.word	0x0000ddbc
    6628:	20000274 	.word	0x20000274
    662c:	20000278 	.word	0x20000278
    6630:	20000e5c 	.word	0x20000e5c

00006634 <SystemInit>:
    6634:	4b04      	ldr	r3, [pc, #16]	; (6648 <SystemInit+0x14>)
    6636:	4a05      	ldr	r2, [pc, #20]	; (664c <SystemInit+0x18>)
    6638:	609a      	str	r2, [r3, #8]
    663a:	f8d3 2088 	ldr.w	r2, [r3, #136]	; 0x88
    663e:	f442 0270 	orr.w	r2, r2, #15728640	; 0xf00000
    6642:	f8c3 2088 	str.w	r2, [r3, #136]	; 0x88
    6646:	4770      	bx	lr
    6648:	e000ed00 	.word	0xe000ed00
    664c:	00004000 	.word	0x00004000

00006650 <SystemHFRCODPLLClockGet>:
    6650:	4b01      	ldr	r3, [pc, #4]	; (6658 <SystemHFRCODPLLClockGet+0x8>)
    6652:	6818      	ldr	r0, [r3, #0]
    6654:	4770      	bx	lr
    6656:	bf00      	nop
    6658:	20000004 	.word	0x20000004

0000665c <SystemHFRCODPLLClockSet>:
    665c:	4b01      	ldr	r3, [pc, #4]	; (6664 <SystemHFRCODPLLClockSet+0x8>)
    665e:	6018      	str	r0, [r3, #0]
    6660:	4770      	bx	lr
    6662:	bf00      	nop
    6664:	20000004 	.word	0x20000004

00006668 <SystemSYSCLKGet>:
    6668:	b508      	push	{r3, lr}
    666a:	4b09      	ldr	r3, [pc, #36]	; (6690 <SystemSYSCLKGet+0x28>)
    666c:	6f1b      	ldr	r3, [r3, #112]	; 0x70
    666e:	f003 0307 	and.w	r3, r3, #7
    6672:	2b02      	cmp	r3, #2
    6674:	d004      	beq.n	6680 <SystemSYSCLKGet+0x18>
    6676:	2b03      	cmp	r3, #3
    6678:	d005      	beq.n	6686 <SystemSYSCLKGet+0x1e>
    667a:	2b01      	cmp	r3, #1
    667c:	d006      	beq.n	668c <SystemSYSCLKGet+0x24>
    667e:	e7fe      	b.n	667e <SystemSYSCLKGet+0x16>
    6680:	f7ff ffe6 	bl	6650 <SystemHFRCODPLLClockGet>
    6684:	e003      	b.n	668e <SystemSYSCLKGet+0x26>
    6686:	4b03      	ldr	r3, [pc, #12]	; (6694 <SystemSYSCLKGet+0x2c>)
    6688:	6818      	ldr	r0, [r3, #0]
    668a:	e000      	b.n	668e <SystemSYSCLKGet+0x26>
    668c:	4802      	ldr	r0, [pc, #8]	; (6698 <SystemSYSCLKGet+0x30>)
    668e:	bd08      	pop	{r3, pc}
    6690:	40008000 	.word	0x40008000
    6694:	20000008 	.word	0x20000008
    6698:	01312d00 	.word	0x01312d00

0000669c <SystemHCLKGet>:
    669c:	b508      	push	{r3, lr}
    669e:	f7ff ffe3 	bl	6668 <SystemSYSCLKGet>
    66a2:	4b05      	ldr	r3, [pc, #20]	; (66b8 <SystemHCLKGet+0x1c>)
    66a4:	6f1b      	ldr	r3, [r3, #112]	; 0x70
    66a6:	f3c3 3301 	ubfx	r3, r3, #12, #2
    66aa:	3301      	adds	r3, #1
    66ac:	fbb0 f0f3 	udiv	r0, r0, r3
    66b0:	4b02      	ldr	r3, [pc, #8]	; (66bc <SystemHCLKGet+0x20>)
    66b2:	6018      	str	r0, [r3, #0]
    66b4:	bd08      	pop	{r3, pc}
    66b6:	bf00      	nop
    66b8:	40008000 	.word	0x40008000
    66bc:	20000000 	.word	0x20000000

000066c0 <SystemMaxCoreClockGet>:
    66c0:	4800      	ldr	r0, [pc, #0]	; (66c4 <SystemMaxCoreClockGet+0x4>)
    66c2:	4770      	bx	lr
    66c4:	04c4b400 	.word	0x04c4b400

000066c8 <SystemHFXOClockGet>:
    66c8:	4b01      	ldr	r3, [pc, #4]	; (66d0 <SystemHFXOClockGet+0x8>)
    66ca:	6818      	ldr	r0, [r3, #0]
    66cc:	4770      	bx	lr
    66ce:	bf00      	nop
    66d0:	20000008 	.word	0x20000008

000066d4 <SystemCLKIN0Get>:
    66d4:	2000      	movs	r0, #0
    66d6:	4770      	bx	lr

000066d8 <SystemFSRCOClockGet>:
    66d8:	4800      	ldr	r0, [pc, #0]	; (66dc <SystemFSRCOClockGet+0x4>)
    66da:	4770      	bx	lr
    66dc:	01312d00 	.word	0x01312d00

000066e0 <SystemHFRCOEM23ClockGet>:
    66e0:	4b17      	ldr	r3, [pc, #92]	; (6740 <SystemHFRCOEM23ClockGet+0x60>)
    66e2:	6898      	ldr	r0, [r3, #8]
    66e4:	f3c0 4004 	ubfx	r0, r0, #16, #5
    66e8:	280c      	cmp	r0, #12
    66ea:	d808      	bhi.n	66fe <SystemHFRCOEM23ClockGet+0x1e>
    66ec:	e8df f000 	tbb	[pc, r0]
    66f0:	07070709 	.word	0x07070709
    66f4:	17210707 	.word	0x17210707
    66f8:	1d1b0719 	.word	0x1d1b0719
    66fc:	1f          	.byte	0x1f
    66fd:	00          	.byte	0x00
    66fe:	2000      	movs	r0, #0
    6700:	4770      	bx	lr
    6702:	4b0f      	ldr	r3, [pc, #60]	; (6740 <SystemHFRCOEM23ClockGet+0x60>)
    6704:	689b      	ldr	r3, [r3, #8]
    6706:	f003 7340 	and.w	r3, r3, #50331648	; 0x3000000
    670a:	f1b3 7f80 	cmp.w	r3, #16777216	; 0x1000000
    670e:	d012      	beq.n	6736 <SystemHFRCOEM23ClockGet+0x56>
    6710:	f1b3 7f00 	cmp.w	r3, #33554432	; 0x2000000
    6714:	d011      	beq.n	673a <SystemHFRCOEM23ClockGet+0x5a>
    6716:	b103      	cbz	r3, 671a <SystemHFRCOEM23ClockGet+0x3a>
    6718:	4770      	bx	lr
    671a:	480a      	ldr	r0, [pc, #40]	; (6744 <SystemHFRCOEM23ClockGet+0x64>)
    671c:	4770      	bx	lr
    671e:	480a      	ldr	r0, [pc, #40]	; (6748 <SystemHFRCOEM23ClockGet+0x68>)
    6720:	4770      	bx	lr
    6722:	480a      	ldr	r0, [pc, #40]	; (674c <SystemHFRCOEM23ClockGet+0x6c>)
    6724:	4770      	bx	lr
    6726:	480a      	ldr	r0, [pc, #40]	; (6750 <SystemHFRCOEM23ClockGet+0x70>)
    6728:	4770      	bx	lr
    672a:	480a      	ldr	r0, [pc, #40]	; (6754 <SystemHFRCOEM23ClockGet+0x74>)
    672c:	4770      	bx	lr
    672e:	480a      	ldr	r0, [pc, #40]	; (6758 <SystemHFRCOEM23ClockGet+0x78>)
    6730:	4770      	bx	lr
    6732:	480a      	ldr	r0, [pc, #40]	; (675c <SystemHFRCOEM23ClockGet+0x7c>)
    6734:	4770      	bx	lr
    6736:	480a      	ldr	r0, [pc, #40]	; (6760 <SystemHFRCOEM23ClockGet+0x80>)
    6738:	4770      	bx	lr
    673a:	480a      	ldr	r0, [pc, #40]	; (6764 <SystemHFRCOEM23ClockGet+0x84>)
    673c:	e7ec      	b.n	6718 <SystemHFRCOEM23ClockGet+0x38>
    673e:	bf00      	nop
    6740:	4a014000 	.word	0x4a014000
    6744:	003d0900 	.word	0x003d0900
    6748:	00f42400 	.word	0x00f42400
    674c:	0121eac0 	.word	0x0121eac0
    6750:	018cba80 	.word	0x018cba80
    6754:	01e84800 	.word	0x01e84800
    6758:	02625a00 	.word	0x02625a00
    675c:	00c65d40 	.word	0x00c65d40
    6760:	001e8480 	.word	0x001e8480
    6764:	000f4240 	.word	0x000f4240

00006768 <SystemLFRCOClockGet>:
    6768:	f44f 4000 	mov.w	r0, #32768	; 0x8000
    676c:	4770      	bx	lr

0000676e <SystemULFRCOClockGet>:
    676e:	f44f 707a 	mov.w	r0, #1000	; 0x3e8
    6772:	4770      	bx	lr

00006774 <SystemLFXOClockGet>:
    6774:	4b01      	ldr	r3, [pc, #4]	; (677c <SystemLFXOClockGet+0x8>)
    6776:	6818      	ldr	r0, [r3, #0]
    6778:	4770      	bx	lr
    677a:	bf00      	nop
    677c:	2000000c 	.word	0x2000000c

00006780 <HAL_Clocks_Init>:
    6780:	b508      	push	{r3, lr}
    6782:	4802      	ldr	r0, [pc, #8]	; (678c <HAL_Clocks_Init+0xc>)
    6784:	f7ff fc2c 	bl	5fe0 <CMU_HFRCODPLLBandSet>
    6788:	bd08      	pop	{r3, pc}
    678a:	bf00      	nop
    678c:	04c4b400 	.word	0x04c4b400

00006790 <radioEventHandler>:
    6790:	b510      	push	{r4, lr}
    6792:	4614      	mov	r4, r2
    6794:	f012 0f08 	tst.w	r2, #8
    6798:	d106      	bne.n	67a8 <radioEventHandler+0x18>
    679a:	f014 0fc0 	tst.w	r4, #192	; 0xc0
    679e:	d10c      	bne.n	67ba <radioEventHandler+0x2a>
    67a0:	4b09      	ldr	r3, [pc, #36]	; (67c8 <radioEventHandler+0x38>)
    67a2:	421c      	tst	r4, r3
    67a4:	d10c      	bne.n	67c0 <radioEventHandler+0x30>
    67a6:	bd10      	pop	{r4, pc}
    67a8:	f000 fcb0 	bl	710c <RAIL_HoldRxPacket>
    67ac:	4b07      	ldr	r3, [pc, #28]	; (67cc <radioEventHandler+0x3c>)
    67ae:	681b      	ldr	r3, [r3, #0]
    67b0:	2b00      	cmp	r3, #0
    67b2:	d1f2      	bne.n	679a <radioEventHandler+0xa>
    67b4:	4b05      	ldr	r3, [pc, #20]	; (67cc <radioEventHandler+0x3c>)
    67b6:	6018      	str	r0, [r3, #0]
    67b8:	e7ef      	b.n	679a <radioEventHandler+0xa>
    67ba:	f000 f98d 	bl	6ad8 <BSP_SetLed>
    67be:	e7ef      	b.n	67a0 <radioEventHandler+0x10>
    67c0:	f000 f990 	bl	6ae4 <BSP_ClrLed>
    67c4:	e7ef      	b.n	67a6 <radioEventHandler+0x16>
    67c6:	bf00      	nop
    67c8:	00018d08 	.word	0x00018d08
    67cc:	20000aa4 	.word	0x20000aa4

000067d0 <HAL_Radio_Init>:
    67d0:	b510      	push	{r4, lr}
    67d2:	2100      	movs	r1, #0
    67d4:	4805      	ldr	r0, [pc, #20]	; (67ec <HAL_Radio_Init+0x1c>)
    67d6:	f000 f98f 	bl	6af8 <RAIL_Init>
    67da:	4c05      	ldr	r4, [pc, #20]	; (67f0 <HAL_Radio_Init+0x20>)
    67dc:	6020      	str	r0, [r4, #0]
    67de:	f000 fd3d 	bl	725c <RAIL_IEEE802154_Config2p4GHzRadio>
    67e2:	4904      	ldr	r1, [pc, #16]	; (67f4 <HAL_Radio_Init+0x24>)
    67e4:	6820      	ldr	r0, [r4, #0]
    67e6:	f000 fcfb 	bl	71e0 <RAIL_IEEE802154_Init>
    67ea:	bd10      	pop	{r4, pc}
    67ec:	20000014 	.word	0x20000014
    67f0:	20000aa0 	.word	0x20000aa0
    67f4:	0000be08 	.word	0x0000be08

000067f8 <HAL_Radio_InitPromiscuousMode>:
    67f8:	b530      	push	{r4, r5, lr}
    67fa:	b085      	sub	sp, #20
    67fc:	4c1c      	ldr	r4, [pc, #112]	; (6870 <HAL_Radio_InitPromiscuousMode+0x78>)
    67fe:	2201      	movs	r2, #1
    6800:	4611      	mov	r1, r2
    6802:	6820      	ldr	r0, [r4, #0]
    6804:	f000 fc31 	bl	706a <RAIL_ConfigRxOptions>
    6808:	2101      	movs	r1, #1
    680a:	6820      	ldr	r0, [r4, #0]
    680c:	f000 fd2c 	bl	7268 <RAIL_IEEE802154_SetPromiscuousMode>
    6810:	210f      	movs	r1, #15
    6812:	6820      	ldr	r0, [r4, #0]
    6814:	f000 fd3b 	bl	728e <RAIL_IEEE802154_AcceptFrames>
    6818:	a313      	add	r3, pc, #76	; (adr r3, 6868 <HAL_Radio_InitPromiscuousMode+0x70>)
    681a:	e9d3 2300 	ldrd	r2, r3, [r3]
    681e:	e9cd 2300 	strd	r2, r3, [sp]
    6822:	f04f 32ff 	mov.w	r2, #4294967295	; 0xffffffff
    6826:	f04f 33ff 	mov.w	r3, #4294967295	; 0xffffffff
    682a:	6820      	ldr	r0, [r4, #0]
    682c:	f000 fc10 	bl	7050 <RAIL_ConfigEvents>
    6830:	2500      	movs	r5, #0
    6832:	9502      	str	r5, [sp, #8]
    6834:	9503      	str	r5, [sp, #12]
    6836:	2301      	movs	r3, #1
    6838:	f88d 300a 	strb.w	r3, [sp, #10]
    683c:	f88d 3009 	strb.w	r3, [sp, #9]
    6840:	a902      	add	r1, sp, #8
    6842:	6820      	ldr	r0, [r4, #0]
    6844:	f000 fc0e 	bl	7064 <RAIL_ConfigAntenna>
    6848:	f44f 6380 	mov.w	r3, #1024	; 0x400
    684c:	462a      	mov	r2, r5
    684e:	4909      	ldr	r1, [pc, #36]	; (6874 <HAL_Radio_InitPromiscuousMode+0x7c>)
    6850:	6820      	ldr	r0, [r4, #0]
    6852:	f000 fc30 	bl	70b6 <RAIL_SetTxFifo>
    6856:	462a      	mov	r2, r5
    6858:	4b07      	ldr	r3, [pc, #28]	; (6878 <HAL_Radio_InitPromiscuousMode+0x80>)
    685a:	7819      	ldrb	r1, [r3, #0]
    685c:	6820      	ldr	r0, [r4, #0]
    685e:	f000 f969 	bl	6b34 <RAIL_StartRx>
    6862:	b005      	add	sp, #20
    6864:	bd30      	pop	{r4, r5, pc}
    6866:	bf00      	nop
    6868:	01018dc8 	.word	0x01018dc8
    686c:	00000000 	.word	0x00000000
    6870:	20000aa0 	.word	0x20000aa0
    6874:	200006a0 	.word	0x200006a0
    6878:	20000010 	.word	0x20000010

0000687c <HAL_Radio_GetRxPacket>:
    687c:	2800      	cmp	r0, #0
    687e:	d045      	beq.n	690c <HAL_Radio_GetRxPacket+0x90>
    6880:	b570      	push	{r4, r5, r6, lr}
    6882:	b08c      	sub	sp, #48	; 0x30
    6884:	4604      	mov	r4, r0
    6886:	2300      	movs	r3, #0
    6888:	7003      	strb	r3, [r0, #0]
    688a:	4b22      	ldr	r3, [pc, #136]	; (6914 <HAL_Radio_GetRxPacket+0x98>)
    688c:	6819      	ldr	r1, [r3, #0]
    688e:	b1f1      	cbz	r1, 68ce <HAL_Radio_GetRxPacket+0x52>
    6890:	4d21      	ldr	r5, [pc, #132]	; (6918 <HAL_Radio_GetRxPacket+0x9c>)
    6892:	aa07      	add	r2, sp, #28
    6894:	6828      	ldr	r0, [r5, #0]
    6896:	f000 fc31 	bl	70fc <RAIL_GetRxPacketInfo>
    689a:	aa03      	add	r2, sp, #12
    689c:	4b1d      	ldr	r3, [pc, #116]	; (6914 <HAL_Radio_GetRxPacket+0x98>)
    689e:	6819      	ldr	r1, [r3, #0]
    68a0:	6828      	ldr	r0, [r5, #0]
    68a2:	f000 fc2f 	bl	7104 <RAIL_GetRxPacketDetails>
    68a6:	f8bd 201e 	ldrh.w	r2, [sp, #30]
    68aa:	1e53      	subs	r3, r2, #1
    68ac:	b29b      	uxth	r3, r3
    68ae:	2b7f      	cmp	r3, #127	; 0x7f
    68b0:	d910      	bls.n	68d4 <HAL_Radio_GetRxPacket+0x58>
    68b2:	2600      	movs	r6, #0
    68b4:	4c17      	ldr	r4, [pc, #92]	; (6914 <HAL_Radio_GetRxPacket+0x98>)
    68b6:	4d18      	ldr	r5, [pc, #96]	; (6918 <HAL_Radio_GetRxPacket+0x9c>)
    68b8:	6821      	ldr	r1, [r4, #0]
    68ba:	6828      	ldr	r0, [r5, #0]
    68bc:	f000 fc28 	bl	7110 <RAIL_ReleaseRxPacket>
    68c0:	aa07      	add	r2, sp, #28
    68c2:	2102      	movs	r1, #2
    68c4:	6828      	ldr	r0, [r5, #0]
    68c6:	f000 fc19 	bl	70fc <RAIL_GetRxPacketInfo>
    68ca:	6020      	str	r0, [r4, #0]
    68cc:	bb06      	cbnz	r6, 6910 <HAL_Radio_GetRxPacket+0x94>
    68ce:	2001      	movs	r0, #1
    68d0:	b00c      	add	sp, #48	; 0x30
    68d2:	bd70      	pop	{r4, r5, r6, pc}
    68d4:	1e53      	subs	r3, r2, #1
    68d6:	4622      	mov	r2, r4
    68d8:	f802 3b01 	strb.w	r3, [r2], #1
    68dc:	f8bd 301e 	ldrh.w	r3, [sp, #30]
    68e0:	3b01      	subs	r3, #1
    68e2:	2601      	movs	r6, #1
    68e4:	9600      	str	r6, [sp, #0]
    68e6:	b29b      	uxth	r3, r3
    68e8:	490a      	ldr	r1, [pc, #40]	; (6914 <HAL_Radio_GetRxPacket+0x98>)
    68ea:	6809      	ldr	r1, [r1, #0]
    68ec:	6828      	ldr	r0, [r5, #0]
    68ee:	f000 fc12 	bl	7116 <RAIL_PeekRxPacket>
    68f2:	f99d 3016 	ldrsb.w	r3, [sp, #22]
    68f6:	f884 3082 	strb.w	r3, [r4, #130]	; 0x82
    68fa:	f89d 3017 	ldrb.w	r3, [sp, #23]
    68fe:	f884 3081 	strb.w	r3, [r4, #129]	; 0x81
    6902:	4b06      	ldr	r3, [pc, #24]	; (691c <HAL_Radio_GetRxPacket+0xa0>)
    6904:	781b      	ldrb	r3, [r3, #0]
    6906:	f884 3083 	strb.w	r3, [r4, #131]	; 0x83
    690a:	e7d3      	b.n	68b4 <HAL_Radio_GetRxPacket+0x38>
    690c:	2002      	movs	r0, #2
    690e:	4770      	bx	lr
    6910:	2000      	movs	r0, #0
    6912:	e7dd      	b.n	68d0 <HAL_Radio_GetRxPacket+0x54>
    6914:	20000aa4 	.word	0x20000aa4
    6918:	20000aa0 	.word	0x20000aa0
    691c:	20000010 	.word	0x20000010

00006920 <HAL_SetRadioChannel>:
    6920:	b510      	push	{r4, lr}
    6922:	4604      	mov	r4, r0
    6924:	2200      	movs	r2, #0
    6926:	4601      	mov	r1, r0
    6928:	4b03      	ldr	r3, [pc, #12]	; (6938 <HAL_SetRadioChannel+0x18>)
    692a:	6818      	ldr	r0, [r3, #0]
    692c:	f000 f902 	bl	6b34 <RAIL_StartRx>
    6930:	b908      	cbnz	r0, 6936 <HAL_SetRadioChannel+0x16>
    6932:	4b02      	ldr	r3, [pc, #8]	; (693c <HAL_SetRadioChannel+0x1c>)
    6934:	701c      	strb	r4, [r3, #0]
    6936:	bd10      	pop	{r4, pc}
    6938:	20000aa0 	.word	0x20000aa0
    693c:	20000010 	.word	0x20000010

00006940 <HAL_Console_Init>:
    6940:	b510      	push	{r4, lr}
    6942:	b088      	sub	sp, #32
    6944:	f10d 0c04 	add.w	ip, sp, #4
    6948:	4c2a      	ldr	r4, [pc, #168]	; (69f4 <HAL_Console_Init+0xb4>)
    694a:	cc0f      	ldmia	r4!, {r0, r1, r2, r3}
    694c:	e8ac 000f 	stmia.w	ip!, {r0, r1, r2, r3}
    6950:	e894 0007 	ldmia.w	r4, {r0, r1, r2}
    6954:	e88c 0007 	stmia.w	ip, {r0, r1, r2}
    6958:	4c27      	ldr	r4, [pc, #156]	; (69f8 <HAL_Console_Init+0xb8>)
    695a:	a901      	add	r1, sp, #4
    695c:	4620      	mov	r0, r4
    695e:	f7ff fdad 	bl	64bc <USART_InitAsync>
    6962:	2301      	movs	r3, #1
    6964:	2204      	movs	r2, #4
    6966:	2106      	movs	r1, #6
    6968:	2000      	movs	r0, #0
    696a:	f7ff fbbf 	bl	60ec <GPIO_PinModeSet>
    696e:	2301      	movs	r3, #1
    6970:	2202      	movs	r2, #2
    6972:	2105      	movs	r1, #5
    6974:	2000      	movs	r0, #0
    6976:	f7ff fbb9 	bl	60ec <GPIO_PinModeSet>
    697a:	2301      	movs	r3, #1
    697c:	6163      	str	r3, [r4, #20]
    697e:	4b1e      	ldr	r3, [pc, #120]	; (69f8 <HAL_Console_Init+0xb8>)
    6980:	699b      	ldr	r3, [r3, #24]
    6982:	f013 0f01 	tst.w	r3, #1
    6986:	d0fa      	beq.n	697e <HAL_Console_Init+0x3e>
    6988:	4b1c      	ldr	r3, [pc, #112]	; (69fc <HAL_Console_Init+0xbc>)
    698a:	f44f 22a0 	mov.w	r2, #327680	; 0x50000
    698e:	f8c3 25bc 	str.w	r2, [r3, #1468]	; 0x5bc
    6992:	f503 5380 	add.w	r3, r3, #4096	; 0x1000
    6996:	2204      	movs	r2, #4
    6998:	f8c3 25ac 	str.w	r2, [r3, #1452]	; 0x5ac
    699c:	f503 33d8 	add.w	r3, r3, #110592	; 0x1b000
    69a0:	615a      	str	r2, [r3, #20]
    69a2:	4b15      	ldr	r3, [pc, #84]	; (69f8 <HAL_Console_Init+0xb8>)
    69a4:	699b      	ldr	r3, [r3, #24]
    69a6:	f013 0f02 	tst.w	r3, #2
    69aa:	d0fa      	beq.n	69a2 <HAL_Console_Init+0x62>
    69ac:	4b13      	ldr	r3, [pc, #76]	; (69fc <HAL_Console_Init+0xbc>)
    69ae:	f44f 22c0 	mov.w	r2, #393216	; 0x60000
    69b2:	f8c3 25c4 	str.w	r2, [r3, #1476]	; 0x5c4
    69b6:	f503 5380 	add.w	r3, r3, #4096	; 0x1000
    69ba:	2210      	movs	r2, #16
    69bc:	f8c3 25ac 	str.w	r2, [r3, #1452]	; 0x5ac
    69c0:	4b0f      	ldr	r3, [pc, #60]	; (6a00 <HAL_Console_Init+0xc0>)
    69c2:	f44f 6200 	mov.w	r2, #2048	; 0x800
    69c6:	f8c3 2080 	str.w	r2, [r3, #128]	; 0x80
    69ca:	f3bf 8f4f 	dsb	sy
    69ce:	f3bf 8f6f 	isb	sy
    69d2:	f8c3 2180 	str.w	r2, [r3, #384]	; 0x180
    69d6:	2180      	movs	r1, #128	; 0x80
    69d8:	f883 130b 	strb.w	r1, [r3, #779]	; 0x30b
    69dc:	601a      	str	r2, [r3, #0]
    69de:	4b06      	ldr	r3, [pc, #24]	; (69f8 <HAL_Console_Init+0xb8>)
    69e0:	f503 5100 	add.w	r1, r3, #8192	; 0x2000
    69e4:	2204      	movs	r2, #4
    69e6:	648a      	str	r2, [r1, #72]	; 0x48
    69e8:	f503 5380 	add.w	r3, r3, #4096	; 0x1000
    69ec:	64da      	str	r2, [r3, #76]	; 0x4c
    69ee:	b008      	add	sp, #32
    69f0:	bd10      	pop	{r4, pc}
    69f2:	bf00      	nop
    69f4:	0000be34 	.word	0x0000be34
    69f8:	40058000 	.word	0x40058000
    69fc:	4003c000 	.word	0x4003c000
    6a00:	e000e100 	.word	0xe000e100

00006a04 <HAL_Console_Tx_Byte>:
    6a04:	4b03      	ldr	r3, [pc, #12]	; (6a14 <HAL_Console_Tx_Byte+0x10>)
    6a06:	699b      	ldr	r3, [r3, #24]
    6a08:	f013 0f40 	tst.w	r3, #64	; 0x40
    6a0c:	d0fa      	beq.n	6a04 <HAL_Console_Tx_Byte>
    6a0e:	4b01      	ldr	r3, [pc, #4]	; (6a14 <HAL_Console_Tx_Byte+0x10>)
    6a10:	63d8      	str	r0, [r3, #60]	; 0x3c
    6a12:	4770      	bx	lr
    6a14:	40058000 	.word	0x40058000

00006a18 <USART0_RX_IRQHandler>:
    6a18:	b508      	push	{r3, lr}
    6a1a:	4b03      	ldr	r3, [pc, #12]	; (6a28 <USART0_RX_IRQHandler+0x10>)
    6a1c:	6a58      	ldr	r0, [r3, #36]	; 0x24
    6a1e:	b2c0      	uxtb	r0, r0
    6a20:	f7fe f8e2 	bl	4be8 <Console_RxByte>
    6a24:	bd08      	pop	{r3, pc}
    6a26:	bf00      	nop
    6a28:	40058000 	.word	0x40058000

00006a2c <BSP_InitLed>:
    6a2c:	b508      	push	{r3, lr}
    6a2e:	2300      	movs	r3, #0
    6a30:	2204      	movs	r2, #4
    6a32:	4619      	mov	r1, r3
    6a34:	2002      	movs	r0, #2
    6a36:	f7ff fb59 	bl	60ec <GPIO_PinModeSet>
    6a3a:	2301      	movs	r3, #1
    6a3c:	2204      	movs	r2, #4
    6a3e:	4619      	mov	r1, r3
    6a40:	2002      	movs	r0, #2
    6a42:	f7ff fb53 	bl	60ec <GPIO_PinModeSet>
    6a46:	bd08      	pop	{r3, pc}

00006a48 <BSP_Init>:
    6a48:	b500      	push	{lr}
    6a4a:	b083      	sub	sp, #12
    6a4c:	a801      	add	r0, sp, #4
    6a4e:	f7ff fc41 	bl	62d4 <SYSTEM_ChipRevisionGet>
    6a52:	4b1f      	ldr	r3, [pc, #124]	; (6ad0 <BSP_Init+0x88>)
    6a54:	6d9b      	ldr	r3, [r3, #88]	; 0x58
    6a56:	f413 3f80 	tst.w	r3, #65536	; 0x10000
    6a5a:	d114      	bne.n	6a86 <BSP_Init+0x3e>
    6a5c:	4a1c      	ldr	r2, [pc, #112]	; (6ad0 <BSP_Init+0x88>)
    6a5e:	6b53      	ldr	r3, [r2, #52]	; 0x34
    6a60:	f423 03ff 	bic.w	r3, r3, #8355840	; 0x7f8000
    6a64:	f423 43fe 	bic.w	r3, r3, #32512	; 0x7f00
    6a68:	f443 13bc 	orr.w	r3, r3, #1540096	; 0x178000
    6a6c:	f443 63a0 	orr.w	r3, r3, #1280	; 0x500
    6a70:	6353      	str	r3, [r2, #52]	; 0x34
    6a72:	6b13      	ldr	r3, [r2, #48]	; 0x30
    6a74:	f423 4370 	bic.w	r3, r3, #61440	; 0xf000
    6a78:	f443 4340 	orr.w	r3, r3, #49152	; 0xc000
    6a7c:	6313      	str	r3, [r2, #48]	; 0x30
    6a7e:	6b13      	ldr	r3, [r2, #48]	; 0x30
    6a80:	f443 63e0 	orr.w	r3, r3, #1792	; 0x700
    6a84:	6313      	str	r3, [r2, #48]	; 0x30
    6a86:	f89d 3005 	ldrb.w	r3, [sp, #5]
    6a8a:	2b01      	cmp	r3, #1
    6a8c:	d011      	beq.n	6ab2 <BSP_Init+0x6a>
    6a8e:	4a11      	ldr	r2, [pc, #68]	; (6ad4 <BSP_Init+0x8c>)
    6a90:	f8d2 3080 	ldr.w	r3, [r2, #128]	; 0x80
    6a94:	f043 0303 	orr.w	r3, r3, #3
    6a98:	f8c2 3080 	str.w	r3, [r2, #128]	; 0x80
    6a9c:	f7ff fe70 	bl	6780 <HAL_Clocks_Init>
    6aa0:	f7ff ff4e 	bl	6940 <HAL_Console_Init>
    6aa4:	f7ff fe94 	bl	67d0 <HAL_Radio_Init>
    6aa8:	f7ff ffc0 	bl	6a2c <BSP_InitLed>
    6aac:	b003      	add	sp, #12
    6aae:	f85d fb04 	ldr.w	pc, [sp], #4
    6ab2:	f89d 3004 	ldrb.w	r3, [sp, #4]
    6ab6:	2b00      	cmp	r3, #0
    6ab8:	d1e9      	bne.n	6a8e <BSP_Init+0x46>
    6aba:	2300      	movs	r3, #0
    6abc:	f04f 5200 	mov.w	r2, #536870912	; 0x20000000
    6ac0:	e003      	b.n	6aca <BSP_Init+0x82>
    6ac2:	6811      	ldr	r1, [r2, #0]
    6ac4:	f502 4280 	add.w	r2, r2, #16384	; 0x4000
    6ac8:	3301      	adds	r3, #1
    6aca:	2b05      	cmp	r3, #5
    6acc:	d9f9      	bls.n	6ac2 <BSP_Init+0x7a>
    6ace:	e7de      	b.n	6a8e <BSP_Init+0x46>
    6ad0:	4000c000 	.word	0x4000c000
    6ad4:	40008000 	.word	0x40008000

00006ad8 <BSP_SetLed>:
    6ad8:	4b01      	ldr	r3, [pc, #4]	; (6ae0 <BSP_SetLed+0x8>)
    6ada:	2201      	movs	r2, #1
    6adc:	671a      	str	r2, [r3, #112]	; 0x70
    6ade:	4770      	bx	lr
    6ae0:	4003d000 	.word	0x4003d000

00006ae4 <BSP_ClrLed>:
    6ae4:	4b01      	ldr	r3, [pc, #4]	; (6aec <BSP_ClrLed+0x8>)
    6ae6:	2201      	movs	r2, #1
    6ae8:	671a      	str	r2, [r3, #112]	; 0x70
    6aea:	4770      	bx	lr
    6aec:	4003e000 	.word	0x4003e000

00006af0 <BSP_RebootInBootloader>:
    6af0:	b508      	push	{r3, lr}
    6af2:	f7fe fe69 	bl	57c8 <bootloader_rebootAndInstall>
    6af6:	bd08      	pop	{r3, pc}

00006af8 <RAIL_Init>:
    6af8:	b537      	push	{r0, r1, r2, r4, r5, lr}
    6afa:	4604      	mov	r4, r0
    6afc:	9101      	str	r1, [sp, #4]
    6afe:	b178      	cbz	r0, 6b20 <RAIL_Init+0x28>
    6b00:	4d0a      	ldr	r5, [pc, #40]	; (6b2c <RAIL_Init+0x34>)
    6b02:	782b      	ldrb	r3, [r5, #0]
    6b04:	b97b      	cbnz	r3, 6b26 <RAIL_Init+0x2e>
    6b06:	4b0a      	ldr	r3, [pc, #40]	; (6b30 <RAIL_Init+0x38>)
    6b08:	6018      	str	r0, [r3, #0]
    6b0a:	f000 f84b 	bl	6ba4 <RAILINT_c64aa2902ddc8ebf4f72e7399c171680>
    6b0e:	4620      	mov	r0, r4
    6b10:	9901      	ldr	r1, [sp, #4]
    6b12:	f000 f838 	bl	6b86 <RAILINT_7e61d0565567ab0020244c3cf3f002a7>
    6b16:	1e03      	subs	r3, r0, #0
    6b18:	bf18      	it	ne
    6b1a:	2301      	movne	r3, #1
    6b1c:	4604      	mov	r4, r0
    6b1e:	702b      	strb	r3, [r5, #0]
    6b20:	4620      	mov	r0, r4
    6b22:	b003      	add	sp, #12
    6b24:	bd30      	pop	{r4, r5, pc}
    6b26:	2400      	movs	r4, #0
    6b28:	e7fa      	b.n	6b20 <RAIL_Init+0x28>
    6b2a:	bf00      	nop
    6b2c:	20000aac 	.word	0x20000aac
    6b30:	20000aa8 	.word	0x20000aa8

00006b34 <RAIL_StartRx>:
    6b34:	b510      	push	{r4, lr}
    6b36:	b100      	cbz	r0, 6b3a <RAIL_StartRx+0x6>
    6b38:	300c      	adds	r0, #12
    6b3a:	f000 fa9a 	bl	7072 <RAILINT_7a1b83c18f57d5dc8774009ae81ab08e>
    6b3e:	4604      	mov	r4, r0
    6b40:	b920      	cbnz	r0, 6b4c <RAIL_StartRx+0x18>
    6b42:	2101      	movs	r1, #1
    6b44:	4b02      	ldr	r3, [pc, #8]	; (6b50 <RAIL_StartRx+0x1c>)
    6b46:	4608      	mov	r0, r1
    6b48:	685b      	ldr	r3, [r3, #4]
    6b4a:	4798      	blx	r3
    6b4c:	4620      	mov	r0, r4
    6b4e:	bd10      	pop	{r4, pc}
    6b50:	200001d0 	.word	0x200001d0

00006b54 <RAILINT_db926409e556c7e73d15fec818f5b1d6>:
    6b54:	4770      	bx	lr
	...

00006b58 <RAILINT_ba62dd308ed15b1ffe7bd5b874af6d40>:
    6b58:	1e43      	subs	r3, r0, #1
    6b5a:	3303      	adds	r3, #3
    6b5c:	d806      	bhi.n	6b6c <RAILINT_ba62dd308ed15b1ffe7bd5b874af6d40+0x14>
    6b5e:	4b04      	ldr	r3, [pc, #16]	; (6b70 <RAILINT_ba62dd308ed15b1ffe7bd5b874af6d40+0x18>)
    6b60:	4298      	cmp	r0, r3
    6b62:	bf28      	it	cs
    6b64:	4618      	movcs	r0, r3
    6b66:	2864      	cmp	r0, #100	; 0x64
    6b68:	bf38      	it	cc
    6b6a:	2064      	movcc	r0, #100	; 0x64
    6b6c:	4770      	bx	lr
    6b6e:	bf00      	nop
    6b70:	000f4240 	.word	0x000f4240

00006b74 <RAILINT_a690160bdcee277d32012935fb6dead8>:
    6b74:	1e43      	subs	r3, r0, #1
    6b76:	2b01      	cmp	r3, #1
    6b78:	d903      	bls.n	6b82 <RAILINT_a690160bdcee277d32012935fb6dead8+0xe>
    6b7a:	1f03      	subs	r3, r0, #4
    6b7c:	4258      	negs	r0, r3
    6b7e:	4158      	adcs	r0, r3
    6b80:	4770      	bx	lr
    6b82:	2001      	movs	r0, #1
    6b84:	4770      	bx	lr

00006b86 <RAILINT_7e61d0565567ab0020244c3cf3f002a7>:
    6b86:	b538      	push	{r3, r4, r5, lr}
    6b88:	4604      	mov	r4, r0
    6b8a:	460d      	mov	r5, r1
    6b8c:	2100      	movs	r1, #0
    6b8e:	f000 fa7d 	bl	708c <RAILCb_ConfigFrameTypeLength>
    6b92:	4629      	mov	r1, r5
    6b94:	4620      	mov	r0, r4
    6b96:	f001 fb73 	bl	8280 <RAILINT_f70cad743ef3526a2ef7ac090e6c385a>
    6b9a:	2800      	cmp	r0, #0
    6b9c:	bf0c      	ite	eq
    6b9e:	4620      	moveq	r0, r4
    6ba0:	2000      	movne	r0, #0
    6ba2:	bd38      	pop	{r3, r4, r5, pc}

00006ba4 <RAILINT_c64aa2902ddc8ebf4f72e7399c171680>:
    6ba4:	b510      	push	{r4, lr}
    6ba6:	4604      	mov	r4, r0
    6ba8:	f000 fdc6 	bl	7738 <RAILINT_ee8e30d6c3ef95b8e8dca03da7401c07>
    6bac:	b144      	cbz	r4, 6bc0 <RAILINT_c64aa2902ddc8ebf4f72e7399c171680+0x1c>
    6bae:	4a05      	ldr	r2, [pc, #20]	; (6bc4 <RAILINT_c64aa2902ddc8ebf4f72e7399c171680+0x20>)
    6bb0:	f8d4 3088 	ldr.w	r3, [r4, #136]	; 0x88
    6bb4:	2b00      	cmp	r3, #0
    6bb6:	bf08      	it	eq
    6bb8:	4613      	moveq	r3, r2
    6bba:	4a03      	ldr	r2, [pc, #12]	; (6bc8 <RAILINT_c64aa2902ddc8ebf4f72e7399c171680+0x24>)
    6bbc:	6013      	str	r3, [r2, #0]
    6bbe:	bd10      	pop	{r4, pc}
    6bc0:	6fe3      	ldr	r3, [r4, #124]	; 0x7c
    6bc2:	deff      	udf	#255	; 0xff
    6bc4:	00006b55 	.word	0x00006b55
    6bc8:	200001c8 	.word	0x200001c8

00006bcc <RAILINT_499a6fa84e713dbcc15223a1179c1579>:
    6bcc:	b510      	push	{r4, lr}
    6bce:	460c      	mov	r4, r1
    6bd0:	f000 fe1e 	bl	7810 <RAILINT_99f0e717b1ae5f07aeace88464176fa9>
    6bd4:	b11c      	cbz	r4, 6bde <RAILINT_499a6fa84e713dbcc15223a1179c1579+0x12>
    6bd6:	f000 fe71 	bl	78bc <RAILINT_a4b57b9485a34098ab089f4c182a3c25>
    6bda:	2801      	cmp	r0, #1
    6bdc:	d1fb      	bne.n	6bd6 <RAILINT_499a6fa84e713dbcc15223a1179c1579+0xa>
    6bde:	e8bd 4010 	ldmia.w	sp!, {r4, lr}
    6be2:	4b02      	ldr	r3, [pc, #8]	; (6bec <RAILINT_499a6fa84e713dbcc15223a1179c1579+0x20>)
    6be4:	2100      	movs	r1, #0
    6be6:	2003      	movs	r0, #3
    6be8:	685b      	ldr	r3, [r3, #4]
    6bea:	4718      	bx	r3
    6bec:	200001d0 	.word	0x200001d0

00006bf0 <RAILCb_CalcSymbolRate>:
    6bf0:	b100      	cbz	r0, 6bf4 <RAILCb_CalcSymbolRate+0x4>
    6bf2:	300c      	adds	r0, #12
    6bf4:	f000 bf1c 	b.w	7a30 <RAILINT_7513d8eab2e711e2387c527c09895f59>

00006bf8 <RAILCb_CalcBitRate>:
    6bf8:	b100      	cbz	r0, 6bfc <RAILCb_CalcBitRate+0x4>
    6bfa:	300c      	adds	r0, #12
    6bfc:	f000 bf2e 	b.w	7a5c <RAILINT_fd62944279593a99af34baf33f1f64a3>

00006c00 <RAIL_SetStateTiming>:
    6c00:	b508      	push	{r3, lr}
    6c02:	4602      	mov	r2, r0
    6c04:	6808      	ldr	r0, [r1, #0]
    6c06:	f7ff ffa7 	bl	6b58 <RAILINT_ba62dd308ed15b1ffe7bd5b874af6d40>
    6c0a:	6008      	str	r0, [r1, #0]
    6c0c:	6848      	ldr	r0, [r1, #4]
    6c0e:	f7ff ffa3 	bl	6b58 <RAILINT_ba62dd308ed15b1ffe7bd5b874af6d40>
    6c12:	6048      	str	r0, [r1, #4]
    6c14:	6888      	ldr	r0, [r1, #8]
    6c16:	f7ff ff9f 	bl	6b58 <RAILINT_ba62dd308ed15b1ffe7bd5b874af6d40>
    6c1a:	6088      	str	r0, [r1, #8]
    6c1c:	68c8      	ldr	r0, [r1, #12]
    6c1e:	f7ff ff9b 	bl	6b58 <RAILINT_ba62dd308ed15b1ffe7bd5b874af6d40>
    6c22:	690b      	ldr	r3, [r1, #16]
    6c24:	60c8      	str	r0, [r1, #12]
    6c26:	1c58      	adds	r0, r3, #1
    6c28:	d003      	beq.n	6c32 <RAIL_SetStateTiming+0x32>
    6c2a:	480c      	ldr	r0, [pc, #48]	; (6c5c <RAIL_SetStateTiming+0x5c>)
    6c2c:	4283      	cmp	r3, r0
    6c2e:	bf28      	it	cs
    6c30:	4603      	movcs	r3, r0
    6c32:	610b      	str	r3, [r1, #16]
    6c34:	694b      	ldr	r3, [r1, #20]
    6c36:	1c58      	adds	r0, r3, #1
    6c38:	d003      	beq.n	6c42 <RAIL_SetStateTiming+0x42>
    6c3a:	4808      	ldr	r0, [pc, #32]	; (6c5c <RAIL_SetStateTiming+0x5c>)
    6c3c:	4283      	cmp	r3, r0
    6c3e:	bf28      	it	cs
    6c40:	4603      	movcs	r3, r0
    6c42:	6988      	ldr	r0, [r1, #24]
    6c44:	614b      	str	r3, [r1, #20]
    6c46:	f7ff ff87 	bl	6b58 <RAILINT_ba62dd308ed15b1ffe7bd5b874af6d40>
    6c4a:	6188      	str	r0, [r1, #24]
    6c4c:	b102      	cbz	r2, 6c50 <RAIL_SetStateTiming+0x50>
    6c4e:	320c      	adds	r2, #12
    6c50:	4610      	mov	r0, r2
    6c52:	e8bd 4008 	ldmia.w	sp!, {r3, lr}
    6c56:	f001 bbaf 	b.w	83b8 <RAILINT_232a85da35fb8aa0cd28c39542df9730>
    6c5a:	bf00      	nop
    6c5c:	000f4240 	.word	0x000f4240

00006c60 <RAILINT_a414401b72e85e008bc59287e035ef41>:
    6c60:	e92d 4ff0 	stmdb	sp!, {r4, r5, r6, r7, r8, r9, sl, fp, lr}
    6c64:	6f43      	ldr	r3, [r0, #116]	; 0x74
    6c66:	4680      	mov	r8, r0
    6c68:	460d      	mov	r5, r1
    6c6a:	b083      	sub	sp, #12
    6c6c:	b113      	cbz	r3, 6c74 <RAILINT_a414401b72e85e008bc59287e035ef41+0x14>
    6c6e:	8903      	ldrh	r3, [r0, #8]
    6c70:	428b      	cmp	r3, r1
    6c72:	d076      	beq.n	6d62 <RAILINT_a414401b72e85e008bc59287e035ef41+0x102>
    6c74:	f8d8 7070 	ldr.w	r7, [r8, #112]	; 0x70
    6c78:	2f00      	cmp	r7, #0
    6c7a:	d044      	beq.n	6d06 <RAILINT_a414401b72e85e008bc59287e035ef41+0xa6>
    6c7c:	68bb      	ldr	r3, [r7, #8]
    6c7e:	2b00      	cmp	r3, #0
    6c80:	d041      	beq.n	6d06 <RAILINT_a414401b72e85e008bc59287e035ef41+0xa6>
    6c82:	68f9      	ldr	r1, [r7, #12]
    6c84:	2900      	cmp	r1, #0
    6c86:	d03e      	beq.n	6d06 <RAILINT_a414401b72e85e008bc59287e035ef41+0xa6>
    6c88:	f8d8 2084 	ldr.w	r2, [r8, #132]	; 0x84
    6c8c:	9201      	str	r2, [sp, #4]
    6c8e:	2a00      	cmp	r2, #0
    6c90:	d03d      	beq.n	6d0e <RAILINT_a414401b72e85e008bc59287e035ef41+0xae>
    6c92:	f04f 0900 	mov.w	r9, #0
    6c96:	f1a8 0b0c 	sub.w	fp, r8, #12
    6c9a:	464c      	mov	r4, r9
    6c9c:	464e      	mov	r6, r9
    6c9e:	e000      	b.n	6ca2 <RAILINT_a414401b72e85e008bc59287e035ef41+0x42>
    6ca0:	68bb      	ldr	r3, [r7, #8]
    6ca2:	ebc4 02c4 	rsb	r2, r4, r4, lsl #3
    6ca6:	eb03 0a82 	add.w	sl, r3, r2, lsl #2
    6caa:	f8ba 200e 	ldrh.w	r2, [sl, #14]
    6cae:	3401      	adds	r4, #1
    6cb0:	42aa      	cmp	r2, r5
    6cb2:	d815      	bhi.n	6ce0 <RAILINT_a414401b72e85e008bc59287e035ef41+0x80>
    6cb4:	f8ba 2010 	ldrh.w	r2, [sl, #16]
    6cb8:	42aa      	cmp	r2, r5
    6cba:	d311      	bcc.n	6ce0 <RAILINT_a414401b72e85e008bc59287e035ef41+0x80>
    6cbc:	f9ba 2012 	ldrsh.w	r2, [sl, #18]
    6cc0:	f9b8 1132 	ldrsh.w	r1, [r8, #306]	; 0x132
    6cc4:	4291      	cmp	r1, r2
    6cc6:	dd54      	ble.n	6d72 <RAILINT_a414401b72e85e008bc59287e035ef41+0x112>
    6cc8:	4658      	mov	r0, fp
    6cca:	f898 10c0 	ldrb.w	r1, [r8, #192]	; 0xc0
    6cce:	f004 fce5 	bl	b69c <RAIL_ConvertDbmToRaw>
    6cd2:	f898 2005 	ldrb.w	r2, [r8, #5]
    6cd6:	4681      	mov	r9, r0
    6cd8:	4282      	cmp	r2, r0
    6cda:	4656      	mov	r6, sl
    6cdc:	d903      	bls.n	6ce6 <RAILINT_a414401b72e85e008bc59287e035ef41+0x86>
    6cde:	68f9      	ldr	r1, [r7, #12]
    6ce0:	428c      	cmp	r4, r1
    6ce2:	d3dd      	bcc.n	6ca0 <RAILINT_a414401b72e85e008bc59287e035ef41+0x40>
    6ce4:	b356      	cbz	r6, 6d3c <RAILINT_a414401b72e85e008bc59287e035ef41+0xdc>
    6ce6:	2300      	movs	r3, #0
    6ce8:	4632      	mov	r2, r6
    6cea:	4640      	mov	r0, r8
    6cec:	4619      	mov	r1, r3
    6cee:	9c01      	ldr	r4, [sp, #4]
    6cf0:	47a0      	blx	r4
    6cf2:	2000      	movs	r0, #0
    6cf4:	f8a8 5008 	strh.w	r5, [r8, #8]
    6cf8:	f8c8 6074 	str.w	r6, [r8, #116]	; 0x74
    6cfc:	f888 90c9 	strb.w	r9, [r8, #201]	; 0xc9
    6d00:	b003      	add	sp, #12
    6d02:	e8bd 8ff0 	ldmia.w	sp!, {r4, r5, r6, r7, r8, r9, sl, fp, pc}
    6d06:	2003      	movs	r0, #3
    6d08:	b003      	add	sp, #12
    6d0a:	e8bd 8ff0 	ldmia.w	sp!, {r4, r5, r6, r7, r8, r9, sl, fp, pc}
    6d0e:	4691      	mov	r9, r2
    6d10:	f647 7aff 	movw	sl, #32767	; 0x7fff
    6d14:	4614      	mov	r4, r2
    6d16:	f1a8 0b0c 	sub.w	fp, r8, #12
    6d1a:	ebc4 06c4 	rsb	r6, r4, r4, lsl #3
    6d1e:	eb03 0686 	add.w	r6, r3, r6, lsl #2
    6d22:	89f3      	ldrh	r3, [r6, #14]
    6d24:	42ab      	cmp	r3, r5
    6d26:	d817      	bhi.n	6d58 <RAILINT_a414401b72e85e008bc59287e035ef41+0xf8>
    6d28:	8a33      	ldrh	r3, [r6, #16]
    6d2a:	42ab      	cmp	r3, r5
    6d2c:	d314      	bcc.n	6d58 <RAILINT_a414401b72e85e008bc59287e035ef41+0xf8>
    6d2e:	f9b6 2012 	ldrsh.w	r2, [r6, #18]
    6d32:	4552      	cmp	r2, sl
    6d34:	d104      	bne.n	6d40 <RAILINT_a414401b72e85e008bc59287e035ef41+0xe0>
    6d36:	f04f 09ff 	mov.w	r9, #255	; 0xff
    6d3a:	e7da      	b.n	6cf2 <RAILINT_a414401b72e85e008bc59287e035ef41+0x92>
    6d3c:	2001      	movs	r0, #1
    6d3e:	e7df      	b.n	6d00 <RAILINT_a414401b72e85e008bc59287e035ef41+0xa0>
    6d40:	4658      	mov	r0, fp
    6d42:	f898 10c0 	ldrb.w	r1, [r8, #192]	; 0xc0
    6d46:	f004 fca9 	bl	b69c <RAIL_ConvertDbmToRaw>
    6d4a:	f898 3005 	ldrb.w	r3, [r8, #5]
    6d4e:	4681      	mov	r9, r0
    6d50:	4283      	cmp	r3, r0
    6d52:	d9ce      	bls.n	6cf2 <RAILINT_a414401b72e85e008bc59287e035ef41+0x92>
    6d54:	4632      	mov	r2, r6
    6d56:	68f9      	ldr	r1, [r7, #12]
    6d58:	3401      	adds	r4, #1
    6d5a:	42a1      	cmp	r1, r4
    6d5c:	d905      	bls.n	6d6a <RAILINT_a414401b72e85e008bc59287e035ef41+0x10a>
    6d5e:	68bb      	ldr	r3, [r7, #8]
    6d60:	e7db      	b.n	6d1a <RAILINT_a414401b72e85e008bc59287e035ef41+0xba>
    6d62:	2000      	movs	r0, #0
    6d64:	b003      	add	sp, #12
    6d66:	e8bd 8ff0 	ldmia.w	sp!, {r4, r5, r6, r7, r8, r9, sl, fp, pc}
    6d6a:	2a00      	cmp	r2, #0
    6d6c:	d0e6      	beq.n	6d3c <RAILINT_a414401b72e85e008bc59287e035ef41+0xdc>
    6d6e:	4616      	mov	r6, r2
    6d70:	e7bf      	b.n	6cf2 <RAILINT_a414401b72e85e008bc59287e035ef41+0x92>
    6d72:	4656      	mov	r6, sl
    6d74:	e7b7      	b.n	6ce6 <RAILINT_a414401b72e85e008bc59287e035ef41+0x86>
    6d76:	bf00      	nop

00006d78 <RAILINT_eff06dff73e0f32be1552c4011c2dec9>:
    6d78:	e92d 4ff0 	stmdb	sp!, {r4, r5, r6, r7, r8, r9, sl, fp, lr}
    6d7c:	f8df b1b0 	ldr.w	fp, [pc, #432]	; 6f30 <RAILINT_eff06dff73e0f32be1552c4011c2dec9+0x1b8>
    6d80:	b085      	sub	sp, #20
    6d82:	4604      	mov	r4, r0
    6d84:	4616      	mov	r6, r2
    6d86:	461f      	mov	r7, r3
    6d88:	9100      	str	r1, [sp, #0]
    6d8a:	f001 fb8d 	bl	84a8 <RAILINT_3e587e95c937431090ed1e304e004f0f>
    6d8e:	f8bb 5000 	ldrh.w	r5, [fp]
    6d92:	f001 fba7 	bl	84e4 <RAILINT_2224e76641c2cf7155997d9bff12d8b8>
    6d96:	2800      	cmp	r0, #0
    6d98:	d17c      	bne.n	6e94 <RAILINT_eff06dff73e0f32be1552c4011c2dec9+0x11c>
    6d9a:	f8df 8198 	ldr.w	r8, [pc, #408]	; 6f34 <RAILINT_eff06dff73e0f32be1552c4011c2dec9+0x1bc>
    6d9e:	6f63      	ldr	r3, [r4, #116]	; 0x74
    6da0:	f8d8 2000 	ldr.w	r2, [r8]
    6da4:	4293      	cmp	r3, r2
    6da6:	d06a      	beq.n	6e7e <RAILINT_eff06dff73e0f32be1552c4011c2dec9+0x106>
    6da8:	f000 fd88 	bl	78bc <RAILINT_a4b57b9485a34098ab089f4c182a3c25>
    6dac:	2801      	cmp	r0, #1
    6dae:	d14f      	bne.n	6e50 <RAILINT_eff06dff73e0f32be1552c4011c2dec9+0xd8>
    6db0:	f8df a184 	ldr.w	sl, [pc, #388]	; 6f38 <RAILINT_eff06dff73e0f32be1552c4011c2dec9+0x1c0>
    6db4:	f8da 3000 	ldr.w	r3, [sl]
    6db8:	2b00      	cmp	r3, #0
    6dba:	d05b      	beq.n	6e74 <RAILINT_eff06dff73e0f32be1552c4011c2dec9+0xfc>
    6dbc:	6f22      	ldr	r2, [r4, #112]	; 0x70
    6dbe:	4293      	cmp	r3, r2
    6dc0:	d070      	beq.n	6ea4 <RAILINT_eff06dff73e0f32be1552c4011c2dec9+0x12c>
    6dc2:	f8d4 c074 	ldr.w	ip, [r4, #116]	; 0x74
    6dc6:	6818      	ldr	r0, [r3, #0]
    6dc8:	6811      	ldr	r1, [r2, #0]
    6dca:	b110      	cbz	r0, 6dd2 <RAILINT_eff06dff73e0f32be1552c4011c2dec9+0x5a>
    6dcc:	4288      	cmp	r0, r1
    6dce:	f000 8083 	beq.w	6ed8 <RAILINT_eff06dff73e0f32be1552c4011c2dec9+0x160>
    6dd2:	f8dc 2000 	ldr.w	r2, [ip]
    6dd6:	4620      	mov	r0, r4
    6dd8:	f001 f9cd 	bl	8176 <RAILINT_ed7cbf63d67a6dc102f980914a3e8a21>
    6ddc:	2300      	movs	r3, #0
    6dde:	2601      	movs	r6, #1
    6de0:	4605      	mov	r5, r0
    6de2:	9301      	str	r3, [sp, #4]
    6de4:	f8d4 9084 	ldr.w	r9, [r4, #132]	; 0x84
    6de8:	f88d 700f 	strb.w	r7, [sp, #15]
    6dec:	f1b9 0f00 	cmp.w	r9, #0
    6df0:	d067      	beq.n	6ec2 <RAILINT_eff06dff73e0f32be1552c4011c2dec9+0x14a>
    6df2:	2200      	movs	r2, #0
    6df4:	4620      	mov	r0, r4
    6df6:	4611      	mov	r1, r2
    6df8:	f10d 030f 	add.w	r3, sp, #15
    6dfc:	47c8      	blx	r9
    6dfe:	b985      	cbnz	r5, 6e22 <RAILINT_eff06dff73e0f32be1552c4011c2dec9+0xaa>
    6e00:	6f23      	ldr	r3, [r4, #112]	; 0x70
    6e02:	f8ca 3000 	str.w	r3, [sl]
    6e06:	6f63      	ldr	r3, [r4, #116]	; 0x74
    6e08:	f8c8 3000 	str.w	r3, [r8]
    6e0c:	9b01      	ldr	r3, [sp, #4]
    6e0e:	b90b      	cbnz	r3, 6e14 <RAILINT_eff06dff73e0f32be1552c4011c2dec9+0x9c>
    6e10:	2e00      	cmp	r6, #0
    6e12:	d03a      	beq.n	6e8a <RAILINT_eff06dff73e0f32be1552c4011c2dec9+0x112>
    6e14:	9b00      	ldr	r3, [sp, #0]
    6e16:	4620      	mov	r0, r4
    6e18:	f8cb 3000 	str.w	r3, [fp]
    6e1c:	f000 fef8 	bl	7c10 <RAILINT_b693f7d424389daf06cac15e5c7b8047>
    6e20:	4605      	mov	r5, r0
    6e22:	b18e      	cbz	r6, 6e48 <RAILINT_eff06dff73e0f32be1552c4011c2dec9+0xd0>
    6e24:	fab5 f085 	clz	r0, r5
    6e28:	f240 22a3 	movw	r2, #675	; 0x2a3
    6e2c:	2133      	movs	r1, #51	; 0x33
    6e2e:	0940      	lsrs	r0, r0, #5
    6e30:	f000 f982 	bl	7138 <RAILINT_205167ae842e22724c3f35c6430eeddb>
    6e34:	4639      	mov	r1, r7
    6e36:	4620      	mov	r0, r4
    6e38:	f001 f9aa 	bl	8190 <RAILINT_44f844fe44efb07ef80df95a956dc879>
    6e3c:	4b3a      	ldr	r3, [pc, #232]	; (6f28 <RAILINT_eff06dff73e0f32be1552c4011c2dec9+0x1b0>)
    6e3e:	6f61      	ldr	r1, [r4, #116]	; 0x74
    6e40:	681b      	ldr	r3, [r3, #0]
    6e42:	f1a4 000c 	sub.w	r0, r4, #12
    6e46:	4798      	blx	r3
    6e48:	4628      	mov	r0, r5
    6e4a:	b005      	add	sp, #20
    6e4c:	e8bd 8ff0 	ldmia.w	sp!, {r4, r5, r6, r7, r8, r9, sl, fp, pc}
    6e50:	2001      	movs	r0, #1
    6e52:	f000 fcdd 	bl	7810 <RAILINT_99f0e717b1ae5f07aeace88464176fa9>
    6e56:	f000 fd31 	bl	78bc <RAILINT_a4b57b9485a34098ab089f4c182a3c25>
    6e5a:	2801      	cmp	r0, #1
    6e5c:	d1fb      	bne.n	6e56 <RAILINT_eff06dff73e0f32be1552c4011c2dec9+0xde>
    6e5e:	4b33      	ldr	r3, [pc, #204]	; (6f2c <RAILINT_eff06dff73e0f32be1552c4011c2dec9+0x1b4>)
    6e60:	f8df a0d4 	ldr.w	sl, [pc, #212]	; 6f38 <RAILINT_eff06dff73e0f32be1552c4011c2dec9+0x1c0>
    6e64:	685b      	ldr	r3, [r3, #4]
    6e66:	2100      	movs	r1, #0
    6e68:	2003      	movs	r0, #3
    6e6a:	4798      	blx	r3
    6e6c:	f8da 3000 	ldr.w	r3, [sl]
    6e70:	2b00      	cmp	r3, #0
    6e72:	d1a3      	bne.n	6dbc <RAILINT_eff06dff73e0f32be1552c4011c2dec9+0x44>
    6e74:	6f23      	ldr	r3, [r4, #112]	; 0x70
    6e76:	f8d4 c074 	ldr.w	ip, [r4, #116]	; 0x74
    6e7a:	6819      	ldr	r1, [r3, #0]
    6e7c:	e7a9      	b.n	6dd2 <RAILINT_eff06dff73e0f32be1552c4011c2dec9+0x5a>
    6e7e:	2b00      	cmp	r3, #0
    6e80:	d092      	beq.n	6da8 <RAILINT_eff06dff73e0f32be1552c4011c2dec9+0x30>
    6e82:	9b00      	ldr	r3, [sp, #0]
    6e84:	429d      	cmp	r5, r3
    6e86:	d18f      	bne.n	6da8 <RAILINT_eff06dff73e0f32be1552c4011c2dec9+0x30>
    6e88:	bb87      	cbnz	r7, 6eec <RAILINT_eff06dff73e0f32be1552c4011c2dec9+0x174>
    6e8a:	2500      	movs	r5, #0
    6e8c:	4628      	mov	r0, r5
    6e8e:	b005      	add	sp, #20
    6e90:	e8bd 8ff0 	ldmia.w	sp!, {r4, r5, r6, r7, r8, r9, sl, fp, pc}
    6e94:	2300      	movs	r3, #0
    6e96:	f8df 809c 	ldr.w	r8, [pc, #156]	; 6f34 <RAILINT_eff06dff73e0f32be1552c4011c2dec9+0x1bc>
    6e9a:	f8c8 3000 	str.w	r3, [r8]
    6e9e:	f001 fb19 	bl	84d4 <RAILINT_67b648a3a6e52348d55fcd9139d9f7aa>
    6ea2:	e77c      	b.n	6d9e <RAILINT_eff06dff73e0f32be1552c4011c2dec9+0x26>
    6ea4:	f8d8 1000 	ldr.w	r1, [r8]
    6ea8:	f8d4 c074 	ldr.w	ip, [r4, #116]	; 0x74
    6eac:	2900      	cmp	r1, #0
    6eae:	d08a      	beq.n	6dc6 <RAILINT_eff06dff73e0f32be1552c4011c2dec9+0x4e>
    6eb0:	4561      	cmp	r1, ip
    6eb2:	d188      	bne.n	6dc6 <RAILINT_eff06dff73e0f32be1552c4011c2dec9+0x4e>
    6eb4:	9b00      	ldr	r3, [sp, #0]
    6eb6:	1aeb      	subs	r3, r5, r3
    6eb8:	bf18      	it	ne
    6eba:	2301      	movne	r3, #1
    6ebc:	2500      	movs	r5, #0
    6ebe:	9301      	str	r3, [sp, #4]
    6ec0:	e790      	b.n	6de4 <RAILINT_eff06dff73e0f32be1552c4011c2dec9+0x6c>
    6ec2:	7961      	ldrb	r1, [r4, #5]
    6ec4:	f894 30c9 	ldrb.w	r3, [r4, #201]	; 0xc9
    6ec8:	463a      	mov	r2, r7
    6eca:	4299      	cmp	r1, r3
    6ecc:	bf28      	it	cs
    6ece:	4619      	movcs	r1, r3
    6ed0:	4620      	mov	r0, r4
    6ed2:	f000 fe77 	bl	7bc4 <RAILINT_cd62b828417e3475c6b58e9a311685cc>
    6ed6:	e792      	b.n	6dfe <RAILINT_eff06dff73e0f32be1552c4011c2dec9+0x86>
    6ed8:	f8d8 1000 	ldr.w	r1, [r8]
    6edc:	f8dc 2000 	ldr.w	r2, [ip]
    6ee0:	b111      	cbz	r1, 6ee8 <RAILINT_eff06dff73e0f32be1552c4011c2dec9+0x170>
    6ee2:	6809      	ldr	r1, [r1, #0]
    6ee4:	4291      	cmp	r1, r2
    6ee6:	d010      	beq.n	6f0a <RAILINT_eff06dff73e0f32be1552c4011c2dec9+0x192>
    6ee8:	6859      	ldr	r1, [r3, #4]
    6eea:	e774      	b.n	6dd6 <RAILINT_eff06dff73e0f32be1552c4011c2dec9+0x5e>
    6eec:	2e00      	cmp	r6, #0
    6eee:	d0cc      	beq.n	6e8a <RAILINT_eff06dff73e0f32be1552c4011c2dec9+0x112>
    6ef0:	2201      	movs	r2, #1
    6ef2:	f8d4 5084 	ldr.w	r5, [r4, #132]	; 0x84
    6ef6:	f88d 200f 	strb.w	r2, [sp, #15]
    6efa:	b15d      	cbz	r5, 6f14 <RAILINT_eff06dff73e0f32be1552c4011c2dec9+0x19c>
    6efc:	2200      	movs	r2, #0
    6efe:	4620      	mov	r0, r4
    6f00:	4611      	mov	r1, r2
    6f02:	f10d 030f 	add.w	r3, sp, #15
    6f06:	47a8      	blx	r5
    6f08:	e7bf      	b.n	6e8a <RAILINT_eff06dff73e0f32be1552c4011c2dec9+0x112>
    6f0a:	2300      	movs	r3, #0
    6f0c:	2601      	movs	r6, #1
    6f0e:	461d      	mov	r5, r3
    6f10:	9301      	str	r3, [sp, #4]
    6f12:	e767      	b.n	6de4 <RAILINT_eff06dff73e0f32be1552c4011c2dec9+0x6c>
    6f14:	7961      	ldrb	r1, [r4, #5]
    6f16:	f894 30c9 	ldrb.w	r3, [r4, #201]	; 0xc9
    6f1a:	4620      	mov	r0, r4
    6f1c:	4299      	cmp	r1, r3
    6f1e:	bf28      	it	cs
    6f20:	4619      	movcs	r1, r3
    6f22:	f000 fe4f 	bl	7bc4 <RAILINT_cd62b828417e3475c6b58e9a311685cc>
    6f26:	e7b0      	b.n	6e8a <RAILINT_eff06dff73e0f32be1552c4011c2dec9+0x112>
    6f28:	200001c8 	.word	0x200001c8
    6f2c:	200001d0 	.word	0x200001d0
    6f30:	20000ab0 	.word	0x20000ab0
    6f34:	20000ab8 	.word	0x20000ab8
    6f38:	20000ab4 	.word	0x20000ab4

00006f3c <RAILINT_f6dbb0a8d6338735e61b94958eb4964b>:
    6f3c:	b5f8      	push	{r3, r4, r5, r6, r7, lr}
    6f3e:	460e      	mov	r6, r1
    6f40:	4605      	mov	r5, r0
    6f42:	f7ff f8c3 	bl	60cc <CORE_EnterCritical>
    6f46:	4631      	mov	r1, r6
    6f48:	4607      	mov	r7, r0
    6f4a:	4628      	mov	r0, r5
    6f4c:	f7ff fe88 	bl	6c60 <RAILINT_a414401b72e85e008bc59287e035ef41>
    6f50:	4604      	mov	r4, r0
    6f52:	b120      	cbz	r0, 6f5e <RAILINT_f6dbb0a8d6338735e61b94958eb4964b+0x22>
    6f54:	4638      	mov	r0, r7
    6f56:	f7ff f8bd 	bl	60d4 <CORE_ExitCritical>
    6f5a:	4620      	mov	r0, r4
    6f5c:	bdf8      	pop	{r3, r4, r5, r6, r7, pc}
    6f5e:	4603      	mov	r3, r0
    6f60:	4602      	mov	r2, r0
    6f62:	4631      	mov	r1, r6
    6f64:	4628      	mov	r0, r5
    6f66:	f7ff ff07 	bl	6d78 <RAILINT_eff06dff73e0f32be1552c4011c2dec9>
    6f6a:	4604      	mov	r4, r0
    6f6c:	4638      	mov	r0, r7
    6f6e:	f7ff f8b1 	bl	60d4 <CORE_ExitCritical>
    6f72:	4620      	mov	r0, r4
    6f74:	bdf8      	pop	{r3, r4, r5, r6, r7, pc}
    6f76:	bf00      	nop

00006f78 <RAILINT_f0f851116f368bc625e2a9fc0cccaa69>:
    6f78:	b5f8      	push	{r3, r4, r5, r6, r7, lr}
    6f7a:	4606      	mov	r6, r0
    6f7c:	460c      	mov	r4, r1
    6f7e:	b359      	cbz	r1, 6fd8 <RAILINT_f0f851116f368bc625e2a9fc0cccaa69+0x60>
    6f80:	680b      	ldr	r3, [r1, #0]
    6f82:	b143      	cbz	r3, 6f96 <RAILINT_f0f851116f368bc625e2a9fc0cccaa69+0x1e>
    6f84:	681b      	ldr	r3, [r3, #0]
    6f86:	3301      	adds	r3, #1
    6f88:	d026      	beq.n	6fd8 <RAILINT_f0f851116f368bc625e2a9fc0cccaa69+0x60>
    6f8a:	68cb      	ldr	r3, [r1, #12]
    6f8c:	b11b      	cbz	r3, 6f96 <RAILINT_f0f851116f368bc625e2a9fc0cccaa69+0x1e>
    6f8e:	688b      	ldr	r3, [r1, #8]
    6f90:	3b00      	subs	r3, #0
    6f92:	bf18      	it	ne
    6f94:	2301      	movne	r3, #1
    6f96:	4618      	mov	r0, r3
    6f98:	2261      	movs	r2, #97	; 0x61
    6f9a:	2141      	movs	r1, #65	; 0x41
    6f9c:	f000 f8cc 	bl	7138 <RAILINT_205167ae842e22724c3f35c6430eeddb>
    6fa0:	4620      	mov	r0, r4
    6fa2:	f001 ff7d 	bl	8ea0 <RAILINT_37dcaf6b67da0fa3f13a9cf3e2b6a0ca>
    6fa6:	2300      	movs	r3, #0
    6fa8:	f64f 72ff 	movw	r2, #65535	; 0xffff
    6fac:	f04f 0c1c 	mov.w	ip, #28
    6fb0:	f886 30cc 	strb.w	r3, [r6, #204]	; 0xcc
    6fb4:	e9c6 431c 	strd	r4, r3, [r6, #112]	; 0x70
    6fb8:	68e7      	ldr	r7, [r4, #12]
    6fba:	b2d8      	uxtb	r0, r3
    6fbc:	4287      	cmp	r7, r0
    6fbe:	d80d      	bhi.n	6fdc <RAILINT_f0f851116f368bc625e2a9fc0cccaa69+0x64>
    6fc0:	4615      	mov	r5, r2
    6fc2:	2300      	movs	r3, #0
    6fc4:	4a0b      	ldr	r2, [pc, #44]	; (6ff4 <RAILINT_f0f851116f368bc625e2a9fc0cccaa69+0x7c>)
    6fc6:	4629      	mov	r1, r5
    6fc8:	6013      	str	r3, [r2, #0]
    6fca:	4a0b      	ldr	r2, [pc, #44]	; (6ff8 <RAILINT_f0f851116f368bc625e2a9fc0cccaa69+0x80>)
    6fcc:	4630      	mov	r0, r6
    6fce:	6013      	str	r3, [r2, #0]
    6fd0:	f7ff ffb4 	bl	6f3c <RAILINT_f6dbb0a8d6338735e61b94958eb4964b>
    6fd4:	4628      	mov	r0, r5
    6fd6:	bdf8      	pop	{r3, r4, r5, r6, r7, pc}
    6fd8:	2300      	movs	r3, #0
    6fda:	e7dc      	b.n	6f96 <RAILINT_f0f851116f368bc625e2a9fc0cccaa69+0x1e>
    6fdc:	68a1      	ldr	r1, [r4, #8]
    6fde:	fb0c 1100 	mla	r1, ip, r0, r1
    6fe2:	89cd      	ldrh	r5, [r1, #14]
    6fe4:	4295      	cmp	r5, r2
    6fe6:	d202      	bcs.n	6fee <RAILINT_f0f851116f368bc625e2a9fc0cccaa69+0x76>
    6fe8:	2d00      	cmp	r5, #0
    6fea:	d0ea      	beq.n	6fc2 <RAILINT_f0f851116f368bc625e2a9fc0cccaa69+0x4a>
    6fec:	462a      	mov	r2, r5
    6fee:	3301      	adds	r3, #1
    6ff0:	e7e3      	b.n	6fba <RAILINT_f0f851116f368bc625e2a9fc0cccaa69+0x42>
    6ff2:	bf00      	nop
    6ff4:	20000ab4 	.word	0x20000ab4
    6ff8:	20000ab8 	.word	0x20000ab8

00006ffc <RAILINT_992a3700fea39ab020ab6087e28c16df>:
    6ffc:	780a      	ldrb	r2, [r1, #0]
    6ffe:	b538      	push	{r3, r4, r5, lr}
    7000:	4605      	mov	r5, r0
    7002:	4610      	mov	r0, r2
    7004:	f7ff fdb6 	bl	6b74 <RAILINT_a690160bdcee277d32012935fb6dead8>
    7008:	b160      	cbz	r0, 7024 <RAILINT_992a3700fea39ab020ab6087e28c16df+0x28>
    700a:	784c      	ldrb	r4, [r1, #1]
    700c:	4620      	mov	r0, r4
    700e:	f7ff fdb1 	bl	6b74 <RAILINT_a690160bdcee277d32012935fb6dead8>
    7012:	b138      	cbz	r0, 7024 <RAILINT_992a3700fea39ab020ab6087e28c16df+0x28>
    7014:	4322      	orrs	r2, r4
    7016:	0753      	lsls	r3, r2, #29
    7018:	d404      	bmi.n	7024 <RAILINT_992a3700fea39ab020ab6087e28c16df+0x28>
    701a:	4628      	mov	r0, r5
    701c:	e8bd 4038 	ldmia.w	sp!, {r3, r4, r5, lr}
    7020:	f000 bd52 	b.w	7ac8 <RAILINT_c232eb9695d8ec51969199511f1ffdbc>
    7024:	2001      	movs	r0, #1
    7026:	bd38      	pop	{r3, r4, r5, pc}

00007028 <RAILINT_9dae83c5a5b496ad1ace0cccba141a93>:
    7028:	b510      	push	{r4, lr}
    702a:	4604      	mov	r4, r0
    702c:	7808      	ldrb	r0, [r1, #0]
    702e:	f7ff fda1 	bl	6b74 <RAILINT_a690160bdcee277d32012935fb6dead8>
    7032:	b158      	cbz	r0, 704c <RAILINT_9dae83c5a5b496ad1ace0cccba141a93+0x24>
    7034:	784a      	ldrb	r2, [r1, #1]
    7036:	4610      	mov	r0, r2
    7038:	f7ff fd9c 	bl	6b74 <RAILINT_a690160bdcee277d32012935fb6dead8>
    703c:	b130      	cbz	r0, 704c <RAILINT_9dae83c5a5b496ad1ace0cccba141a93+0x24>
    703e:	2a04      	cmp	r2, #4
    7040:	d004      	beq.n	704c <RAILINT_9dae83c5a5b496ad1ace0cccba141a93+0x24>
    7042:	4620      	mov	r0, r4
    7044:	e8bd 4010 	ldmia.w	sp!, {r4, lr}
    7048:	f000 bd74 	b.w	7b34 <RAILINT_7bc23e10f52e56d9fc3392da3f1c2215>
    704c:	2001      	movs	r0, #1
    704e:	bd10      	pop	{r4, pc}

00007050 <RAIL_ConfigEvents>:
    7050:	b430      	push	{r4, r5}
    7052:	e9dd 4502 	ldrd	r4, r5, [sp, #8]
    7056:	b100      	cbz	r0, 705a <RAIL_ConfigEvents+0xa>
    7058:	300c      	adds	r0, #12
    705a:	e9cd 4502 	strd	r4, r5, [sp, #8]
    705e:	bc30      	pop	{r4, r5}
    7060:	f000 bb28 	b.w	76b4 <RAILINT_2a4da4d01b26a7f90998f094ef0d126c>

00007064 <RAIL_ConfigAntenna>:
    7064:	4608      	mov	r0, r1
    7066:	f001 bb8d 	b.w	8784 <RAILINT_d035493dc985426c706a16725f81a4c1>

0000706a <RAIL_ConfigRxOptions>:
    706a:	b100      	cbz	r0, 706e <RAIL_ConfigRxOptions+0x4>
    706c:	300c      	adds	r0, #12
    706e:	f000 bcd5 	b.w	7a1c <RAILINT_c1ee6010aaf86bbd071153c63f21d1bb>

00007072 <RAILINT_7a1b83c18f57d5dc8774009ae81ab08e>:
    7072:	b538      	push	{r3, r4, r5, lr}
    7074:	4604      	mov	r4, r0
    7076:	460d      	mov	r5, r1
    7078:	f7ff ff60 	bl	6f3c <RAILINT_f6dbb0a8d6338735e61b94958eb4964b>
    707c:	b928      	cbnz	r0, 708a <RAILINT_7a1b83c18f57d5dc8774009ae81ab08e+0x18>
    707e:	4629      	mov	r1, r5
    7080:	4620      	mov	r0, r4
    7082:	e8bd 4038 	ldmia.w	sp!, {r3, r4, r5, lr}
    7086:	f000 bc2f 	b.w	78e8 <RAILINT_dadf1c52f26190429dcacf7151424c68>
    708a:	bd38      	pop	{r3, r4, r5, pc}

0000708c <RAILCb_ConfigFrameTypeLength>:
    708c:	f001 ba32 	b.w	84f4 <RAILINT_3bff6dfc0590d5c54bb0576abaeb38dd>

00007090 <RAILINT_45e98292b11a528e9c15f82e1aa2d629>:
    7090:	b538      	push	{r3, r4, r5, lr}
    7092:	4605      	mov	r5, r0
    7094:	460c      	mov	r4, r1
    7096:	f7ff f819 	bl	60cc <CORE_EnterCritical>
    709a:	69a9      	ldr	r1, [r5, #24]
    709c:	696b      	ldr	r3, [r5, #20]
    709e:	400c      	ands	r4, r1
    70a0:	4323      	orrs	r3, r4
    70a2:	616b      	str	r3, [r5, #20]
    70a4:	f7ff f816 	bl	60d4 <CORE_ExitCritical>
    70a8:	2000      	movs	r0, #0
    70aa:	b90c      	cbnz	r4, 70b0 <RAILINT_45e98292b11a528e9c15f82e1aa2d629+0x20>
    70ac:	2100      	movs	r1, #0
    70ae:	bd38      	pop	{r3, r4, r5, pc}
    70b0:	f44f 7100 	mov.w	r1, #512	; 0x200
    70b4:	e7fb      	b.n	70ae <RAILINT_45e98292b11a528e9c15f82e1aa2d629+0x1e>

000070b6 <RAIL_SetTxFifo>:
    70b6:	b100      	cbz	r0, 70ba <RAIL_SetTxFifo+0x4>
    70b8:	300c      	adds	r0, #12
    70ba:	f001 b823 	b.w	8104 <RAILINT_bfd5d2eb09d8a4a7871a5c604290c6e9>

000070be <RAIL_SetRxFifo>:
    70be:	b100      	cbz	r0, 70c2 <RAIL_SetRxFifo+0x4>
    70c0:	300c      	adds	r0, #12
    70c2:	f001 b83b 	b.w	813c <RAILINT_705827075d9b54aaab0fdf12a337d2ed>
	...

000070c8 <RAILCb_SetupRxFifo>:
    70c8:	f44f 7300 	mov.w	r3, #512	; 0x200
    70cc:	b507      	push	{r0, r1, r2, lr}
    70ce:	490a      	ldr	r1, [pc, #40]	; (70f8 <RAILCb_SetupRxFifo+0x30>)
    70d0:	f10d 0206 	add.w	r2, sp, #6
    70d4:	f8ad 3006 	strh.w	r3, [sp, #6]
    70d8:	f7ff fff1 	bl	70be <RAIL_SetRxFifo>
    70dc:	f8bd 3006 	ldrh.w	r3, [sp, #6]
    70e0:	f5b3 7f00 	cmp.w	r3, #512	; 0x200
    70e4:	d105      	bne.n	70f2 <RAILCb_SetupRxFifo+0x2a>
    70e6:	2802      	cmp	r0, #2
    70e8:	bf08      	it	eq
    70ea:	2000      	moveq	r0, #0
    70ec:	b003      	add	sp, #12
    70ee:	f85d fb04 	ldr.w	pc, [sp], #4
    70f2:	2001      	movs	r0, #1
    70f4:	e7fa      	b.n	70ec <RAILCb_SetupRxFifo+0x24>
    70f6:	bf00      	nop
    70f8:	20000abc 	.word	0x20000abc

000070fc <RAIL_GetRxPacketInfo>:
    70fc:	4608      	mov	r0, r1
    70fe:	4611      	mov	r1, r2
    7100:	f000 bf0e 	b.w	7f20 <RAILINT_052f8b2565813079f19c931bac48db51>

00007104 <RAIL_GetRxPacketDetails>:
    7104:	b100      	cbz	r0, 7108 <RAIL_GetRxPacketDetails+0x4>
    7106:	300c      	adds	r0, #12
    7108:	f000 bfda 	b.w	80c0 <RAILINT_310967c2629da02413ba4e8adfa3e137>

0000710c <RAIL_HoldRxPacket>:
    710c:	f000 bfec 	b.w	80e8 <RAILINT_d9e915d6d22bf4edc2f73d7c60daed1e>

00007110 <RAIL_ReleaseRxPacket>:
    7110:	4608      	mov	r0, r1
    7112:	f000 bfeb 	b.w	80ec <RAILINT_f921a6fdde390c986016ab0c8bf49fae>

00007116 <RAIL_PeekRxPacket>:
    7116:	4608      	mov	r0, r1
    7118:	4611      	mov	r1, r2
    711a:	461a      	mov	r2, r3
    711c:	f8bd 3000 	ldrh.w	r3, [sp]
    7120:	f000 bb16 	b.w	7750 <RAILINT_3131b2227caece62bdb8e184ed31ce2e>

00007124 <RAILCb_AssertFailed>:
    7124:	4b02      	ldr	r3, [pc, #8]	; (7130 <RAILCb_AssertFailed+0xc>)
    7126:	6019      	str	r1, [r3, #0]
    7128:	4b02      	ldr	r3, [pc, #8]	; (7134 <RAILCb_AssertFailed+0x10>)
    712a:	6018      	str	r0, [r3, #0]
    712c:	e7fe      	b.n	712c <RAILCb_AssertFailed+0x8>
    712e:	bf00      	nop
    7130:	200001cc 	.word	0x200001cc
    7134:	20000cc0 	.word	0x20000cc0

00007138 <RAILINT_205167ae842e22724c3f35c6430eeddb>:
    7138:	b508      	push	{r3, lr}
    713a:	b950      	cbnz	r0, 7152 <RAILINT_205167ae842e22724c3f35c6430eeddb+0x1a>
    713c:	4805      	ldr	r0, [pc, #20]	; (7154 <RAILINT_205167ae842e22724c3f35c6430eeddb+0x1c>)
    713e:	4b06      	ldr	r3, [pc, #24]	; (7158 <RAILINT_205167ae842e22724c3f35c6430eeddb+0x20>)
    7140:	6001      	str	r1, [r0, #0]
    7142:	601a      	str	r2, [r3, #0]
    7144:	4b05      	ldr	r3, [pc, #20]	; (715c <RAILINT_205167ae842e22724c3f35c6430eeddb+0x24>)
    7146:	681a      	ldr	r2, [r3, #0]
    7148:	4b05      	ldr	r3, [pc, #20]	; (7160 <RAILINT_205167ae842e22724c3f35c6430eeddb+0x28>)
    714a:	601a      	str	r2, [r3, #0]
    714c:	6818      	ldr	r0, [r3, #0]
    714e:	f7ff ffe9 	bl	7124 <RAILCb_AssertFailed>
    7152:	bd08      	pop	{r3, pc}
    7154:	200001cc 	.word	0x200001cc
    7158:	20000cbc 	.word	0x20000cbc
    715c:	20000aa8 	.word	0x20000aa8
    7160:	20000cc0 	.word	0x20000cc0

00007164 <RAILINT_32889d97e4b61459c43022425a5ba12c>:
    7164:	b100      	cbz	r0, 7168 <RAILINT_32889d97e4b61459c43022425a5ba12c+0x4>
    7166:	300c      	adds	r0, #12
    7168:	4708      	bx	r1
	...

0000716c <RAILINT_7ccc3c14971040883cbefc15a5cc66b4>:
    716c:	b5f0      	push	{r4, r5, r6, r7, lr}
    716e:	b08d      	sub	sp, #52	; 0x34
    7170:	ac03      	add	r4, sp, #12
    7172:	4605      	mov	r5, r0
    7174:	460b      	mov	r3, r1
    7176:	4627      	mov	r7, r4
    7178:	4a18      	ldr	r2, [pc, #96]	; (71dc <RAILINT_7ccc3c14971040883cbefc15a5cc66b4+0x70>)
    717a:	f102 0c20 	add.w	ip, r2, #32
    717e:	4626      	mov	r6, r4
    7180:	6810      	ldr	r0, [r2, #0]
    7182:	6851      	ldr	r1, [r2, #4]
    7184:	3208      	adds	r2, #8
    7186:	c603      	stmia	r6!, {r0, r1}
    7188:	4562      	cmp	r2, ip
    718a:	4634      	mov	r4, r6
    718c:	d1f7      	bne.n	717e <RAILINT_7ccc3c14971040883cbefc15a5cc66b4+0x12>
    718e:	2b00      	cmp	r3, #0
    7190:	bf08      	it	eq
    7192:	463b      	moveq	r3, r7
    7194:	2700      	movs	r7, #0
    7196:	6810      	ldr	r0, [r2, #0]
    7198:	461c      	mov	r4, r3
    719a:	6030      	str	r0, [r6, #0]
    719c:	4638      	mov	r0, r7
    719e:	f103 060c 	add.w	r6, r3, #12
    71a2:	b2fa      	uxtb	r2, r7
    71a4:	b980      	cbnz	r0, 71c8 <RAILINT_7ccc3c14971040883cbefc15a5cc66b4+0x5c>
    71a6:	4628      	mov	r0, r5
    71a8:	8821      	ldrh	r1, [r4, #0]
    71aa:	9201      	str	r2, [sp, #4]
    71ac:	f001 f9c6 	bl	853c <RAILINT_7f52347882ddbba7a077ea8579225490>
    71b0:	b950      	cbnz	r0, 71c8 <RAILINT_7ccc3c14971040883cbefc15a5cc66b4+0x5c>
    71b2:	4628      	mov	r0, r5
    71b4:	9a01      	ldr	r2, [sp, #4]
    71b6:	88e1      	ldrh	r1, [r4, #6]
    71b8:	f001 f9d4 	bl	8564 <RAILINT_0bdeace83920f49d6521258171637f3c>
    71bc:	b920      	cbnz	r0, 71c8 <RAILINT_7ccc3c14971040883cbefc15a5cc66b4+0x5c>
    71be:	4631      	mov	r1, r6
    71c0:	4628      	mov	r0, r5
    71c2:	9a01      	ldr	r2, [sp, #4]
    71c4:	f001 f9e3 	bl	858e <RAILINT_3ec854c4301ae6ed04c0338b9dec6a8d>
    71c8:	3701      	adds	r7, #1
    71ca:	2f03      	cmp	r7, #3
    71cc:	f106 0608 	add.w	r6, r6, #8
    71d0:	f104 0402 	add.w	r4, r4, #2
    71d4:	d1e5      	bne.n	71a2 <RAILINT_7ccc3c14971040883cbefc15a5cc66b4+0x36>
    71d6:	b00d      	add	sp, #52	; 0x34
    71d8:	bdf0      	pop	{r4, r5, r6, r7, pc}
    71da:	bf00      	nop
    71dc:	0000be90 	.word	0x0000be90

000071e0 <RAIL_IEEE802154_Init>:
    71e0:	e92d 41f0 	stmdb	sp!, {r4, r5, r6, r7, r8, lr}
    71e4:	460d      	mov	r5, r1
    71e6:	4680      	mov	r8, r0
    71e8:	b08a      	sub	sp, #40	; 0x28
    71ea:	b390      	cbz	r0, 7252 <RAIL_IEEE802154_Init+0x72>
    71ec:	f100 070c 	add.w	r7, r0, #12
    71f0:	f895 3028 	ldrb.w	r3, [r5, #40]	; 0x28
    71f4:	f895 2029 	ldrb.w	r2, [r5, #41]	; 0x29
    71f8:	f895 102a 	ldrb.w	r1, [r5, #42]	; 0x2a
    71fc:	9300      	str	r3, [sp, #0]
    71fe:	4638      	mov	r0, r7
    7200:	f895 302b 	ldrb.w	r3, [r5, #43]	; 0x2b
    7204:	ac03      	add	r4, sp, #12
    7206:	f105 060c 	add.w	r6, r5, #12
    720a:	f001 fa01 	bl	8610 <RAILINT_98bbf79a9d5372aef3bfc63b8029e5b5>
    720e:	ce0f      	ldmia	r6!, {r0, r1, r2, r3}
    7210:	c40f      	stmia	r4!, {r0, r1, r2, r3}
    7212:	e896 0007 	ldmia.w	r6, {r0, r1, r2}
    7216:	e884 0007 	stmia.w	r4, {r0, r1, r2}
    721a:	a903      	add	r1, sp, #12
    721c:	4640      	mov	r0, r8
    721e:	f7ff fcef 	bl	6c00 <RAIL_SetStateTiming>
    7222:	4638      	mov	r0, r7
    7224:	1d29      	adds	r1, r5, #4
    7226:	f004 faa3 	bl	b770 <RAILINT_78eaa84173e85419c123802d17d70cee>
    722a:	4604      	mov	r4, r0
    722c:	b948      	cbnz	r0, 7242 <RAIL_IEEE802154_Init+0x62>
    722e:	4638      	mov	r0, r7
    7230:	4909      	ldr	r1, [pc, #36]	; (7258 <RAIL_IEEE802154_Init+0x78>)
    7232:	f001 f87f 	bl	8334 <RAILINT_c141602218ed06e17bb09de10ef4b9a3>
    7236:	4604      	mov	r4, r0
    7238:	b918      	cbnz	r0, 7242 <RAIL_IEEE802154_Init+0x62>
    723a:	4638      	mov	r0, r7
    723c:	f001 f9b6 	bl	85ac <RAILINT_bd523e50f8dd0476bd448bb4ab0a0bba>
    7240:	4604      	mov	r4, r0
    7242:	4638      	mov	r0, r7
    7244:	6829      	ldr	r1, [r5, #0]
    7246:	f7ff ff91 	bl	716c <RAILINT_7ccc3c14971040883cbefc15a5cc66b4>
    724a:	4620      	mov	r0, r4
    724c:	b00a      	add	sp, #40	; 0x28
    724e:	e8bd 81f0 	ldmia.w	sp!, {r4, r5, r6, r7, r8, pc}
    7252:	4607      	mov	r7, r0
    7254:	e7cc      	b.n	71f0 <RAIL_IEEE802154_Init+0x10>
    7256:	bf00      	nop
    7258:	0000beb4 	.word	0x0000beb4

0000725c <RAIL_IEEE802154_Config2p4GHzRadio>:
    725c:	4901      	ldr	r1, [pc, #4]	; (7264 <RAIL_IEEE802154_Config2p4GHzRadio+0x8>)
    725e:	f7ff bf81 	b.w	7164 <RAILINT_32889d97e4b61459c43022425a5ba12c>
    7262:	bf00      	nop
    7264:	00008531 	.word	0x00008531

00007268 <RAIL_IEEE802154_SetPromiscuousMode>:
    7268:	b513      	push	{r0, r1, r4, lr}
    726a:	4604      	mov	r4, r0
    726c:	b100      	cbz	r0, 7270 <RAIL_IEEE802154_SetPromiscuousMode+0x8>
    726e:	340c      	adds	r4, #12
    7270:	4620      	mov	r0, r4
    7272:	9101      	str	r1, [sp, #4]
    7274:	f001 f958 	bl	8528 <RAILINT_5cc919fc20dd52f2d4dcd0fd622a0329>
    7278:	b130      	cbz	r0, 7288 <RAIL_IEEE802154_SetPromiscuousMode+0x20>
    727a:	4620      	mov	r0, r4
    727c:	9901      	ldr	r1, [sp, #4]
    727e:	b002      	add	sp, #8
    7280:	e8bd 4010 	ldmia.w	sp!, {r4, lr}
    7284:	f001 b9ac 	b.w	85e0 <RAILINT_c37fe6dda1b65bd8e07f247eebfb0d24>
    7288:	2002      	movs	r0, #2
    728a:	b002      	add	sp, #8
    728c:	bd10      	pop	{r4, pc}

0000728e <RAIL_IEEE802154_AcceptFrames>:
    728e:	b513      	push	{r0, r1, r4, lr}
    7290:	4604      	mov	r4, r0
    7292:	b100      	cbz	r0, 7296 <RAIL_IEEE802154_AcceptFrames+0x8>
    7294:	340c      	adds	r4, #12
    7296:	4620      	mov	r0, r4
    7298:	9101      	str	r1, [sp, #4]
    729a:	f001 f945 	bl	8528 <RAILINT_5cc919fc20dd52f2d4dcd0fd622a0329>
    729e:	b130      	cbz	r0, 72ae <RAIL_IEEE802154_AcceptFrames+0x20>
    72a0:	4620      	mov	r0, r4
    72a2:	9901      	ldr	r1, [sp, #4]
    72a4:	b002      	add	sp, #8
    72a6:	e8bd 4010 	ldmia.w	sp!, {r4, lr}
    72aa:	f001 b9a1 	b.w	85f0 <RAILINT_05746359872f2c5331853a4d5044e337>
    72ae:	2002      	movs	r0, #2
    72b0:	b002      	add	sp, #8
    72b2:	bd10      	pop	{r4, pc}

000072b4 <RAILINT_a8ad4c6e1a6fd4bd419176ffe7e198ac>:
    72b4:	2000      	movs	r0, #0
    72b6:	4770      	bx	lr

000072b8 <RAILINT_4520652711d56d79a92b925080040a23>:
    72b8:	2000      	movs	r0, #0
    72ba:	4770      	bx	lr

000072bc <RAILINT_07411be539f067663dfa5aa99baea238>:
    72bc:	4b02      	ldr	r3, [pc, #8]	; (72c8 <RAILINT_07411be539f067663dfa5aa99baea238+0xc>)
    72be:	68d8      	ldr	r0, [r3, #12]
    72c0:	f3c0 6003 	ubfx	r0, r0, #24, #4
    72c4:	4770      	bx	lr
    72c6:	bf00      	nop
    72c8:	a8020000 	.word	0xa8020000

000072cc <RAILINT_f0f279c05d6284199cc63667a48546c8>:
    72cc:	4770      	bx	lr
	...

000072d0 <RAILINT_57fa2c163b50cc6661e10e0e7662afb8>:
    72d0:	1c43      	adds	r3, r0, #1
    72d2:	d007      	beq.n	72e4 <RAILINT_57fa2c163b50cc6661e10e0e7662afb8+0x14>
    72d4:	f06f 02ff 	mvn.w	r2, #255	; 0xff
    72d8:	4b03      	ldr	r3, [pc, #12]	; (72e8 <RAILINT_57fa2c163b50cc6661e10e0e7662afb8+0x18>)
    72da:	4010      	ands	r0, r2
    72dc:	621a      	str	r2, [r3, #32]
    72de:	f5a3 5380 	sub.w	r3, r3, #4096	; 0x1000
    72e2:	6218      	str	r0, [r3, #32]
    72e4:	4770      	bx	lr
    72e6:	bf00      	nop
    72e8:	a800e000 	.word	0xa800e000

000072ec <RAILINT_3c9710db34f633d3b8fb008ca62c25bd>:
    72ec:	69c2      	ldr	r2, [r0, #28]
    72ee:	4b0e      	ldr	r3, [pc, #56]	; (7328 <RAILINT_3c9710db34f633d3b8fb008ca62c25bd+0x3c>)
    72f0:	f002 0260 	and.w	r2, r2, #96	; 0x60
    72f4:	2a40      	cmp	r2, #64	; 0x40
    72f6:	d011      	beq.n	731c <RAILINT_3c9710db34f633d3b8fb008ca62c25bd+0x30>
    72f8:	2a60      	cmp	r2, #96	; 0x60
    72fa:	d003      	beq.n	7304 <RAILINT_3c9710db34f633d3b8fb008ca62c25bd+0x18>
    72fc:	2a20      	cmp	r2, #32
    72fe:	d110      	bne.n	7322 <RAILINT_3c9710db34f633d3b8fb008ca62c25bd+0x36>
    7300:	2201      	movs	r2, #1
    7302:	e006      	b.n	7312 <RAILINT_3c9710db34f633d3b8fb008ca62c25bd+0x26>
    7304:	b169      	cbz	r1, 7322 <RAILINT_3c9710db34f633d3b8fb008ca62c25bd+0x36>
    7306:	680a      	ldr	r2, [r1, #0]
    7308:	2a01      	cmp	r2, #1
    730a:	d90a      	bls.n	7322 <RAILINT_3c9710db34f633d3b8fb008ca62c25bd+0x36>
    730c:	694a      	ldr	r2, [r1, #20]
    730e:	f042 0201 	orr.w	r2, r2, #1
    7312:	63da      	str	r2, [r3, #60]	; 0x3c
    7314:	2280      	movs	r2, #128	; 0x80
    7316:	4b05      	ldr	r3, [pc, #20]	; (732c <RAILINT_3c9710db34f633d3b8fb008ca62c25bd+0x40>)
    7318:	611a      	str	r2, [r3, #16]
    731a:	4770      	bx	lr
    731c:	f240 1201 	movw	r2, #257	; 0x101
    7320:	e7f7      	b.n	7312 <RAILINT_3c9710db34f633d3b8fb008ca62c25bd+0x26>
    7322:	2200      	movs	r2, #0
    7324:	e7f5      	b.n	7312 <RAILINT_3c9710db34f633d3b8fb008ca62c25bd+0x26>
    7326:	bf00      	nop
    7328:	b0001f00 	.word	0xb0001f00
    732c:	a8020000 	.word	0xa8020000

00007330 <RAILINT_d3f1a953c5ad458b47a16e4df761d2c8>:
    7330:	b508      	push	{r3, lr}
    7332:	4a09      	ldr	r2, [pc, #36]	; (7358 <RAILINT_d3f1a953c5ad458b47a16e4df761d2c8+0x28>)
    7334:	f7ff ffc2 	bl	72bc <RAILINT_07411be539f067663dfa5aa99baea238>
    7338:	280b      	cmp	r0, #11
    733a:	d006      	beq.n	734a <RAILINT_d3f1a953c5ad458b47a16e4df761d2c8+0x1a>
    733c:	280c      	cmp	r0, #12
    733e:	d009      	beq.n	7354 <RAILINT_d3f1a953c5ad458b47a16e4df761d2c8+0x24>
    7340:	2809      	cmp	r0, #9
    7342:	bf14      	ite	ne
    7344:	2000      	movne	r0, #0
    7346:	2002      	moveq	r0, #2
    7348:	bd08      	pop	{r3, pc}
    734a:	6f10      	ldr	r0, [r2, #112]	; 0x70
    734c:	f410 3080 	ands.w	r0, r0, #65536	; 0x10000
    7350:	d1f0      	bne.n	7334 <RAILINT_d3f1a953c5ad458b47a16e4df761d2c8+0x4>
    7352:	e7f9      	b.n	7348 <RAILINT_d3f1a953c5ad458b47a16e4df761d2c8+0x18>
    7354:	2002      	movs	r0, #2
    7356:	e7f7      	b.n	7348 <RAILINT_d3f1a953c5ad458b47a16e4df761d2c8+0x18>
    7358:	a8020000 	.word	0xa8020000

0000735c <RAILINT_cd2294a9b77625e0ea5276bdf2a90514>:
    735c:	2101      	movs	r1, #1
    735e:	4b09      	ldr	r3, [pc, #36]	; (7384 <RAILINT_cd2294a9b77625e0ea5276bdf2a90514+0x28>)
    7360:	f8d3 20ec 	ldr.w	r2, [r3, #236]	; 0xec
    7364:	6319      	str	r1, [r3, #48]	; 0x30
    7366:	0752      	lsls	r2, r2, #29
    7368:	f44f 5100 	mov.w	r1, #8192	; 0x2000
    736c:	bf48      	it	mi
    736e:	2204      	movmi	r2, #4
    7370:	f503 5300 	add.w	r3, r3, #8192	; 0x2000
    7374:	62d9      	str	r1, [r3, #44]	; 0x2c
    7376:	bf44      	itt	mi
    7378:	f5a3 5380 	submi.w	r3, r3, #4096	; 0x1000
    737c:	f8c3 20ec 	strmi.w	r2, [r3, #236]	; 0xec
    7380:	4770      	bx	lr
    7382:	bf00      	nop
    7384:	44004000 	.word	0x44004000

00007388 <RAILINT_a06f36e75bf41143ad151f38401105ae>:
    7388:	b510      	push	{r4, lr}
    738a:	4604      	mov	r4, r0
    738c:	f8d0 20b4 	ldr.w	r2, [r0, #180]	; 0xb4
    7390:	4b0a      	ldr	r3, [pc, #40]	; (73bc <RAILINT_a06f36e75bf41143ad151f38401105ae+0x34>)
    7392:	f44f 6100 	mov.w	r1, #2048	; 0x800
    7396:	f8c3 20a0 	str.w	r2, [r3, #160]	; 0xa0
    739a:	7802      	ldrb	r2, [r0, #0]
    739c:	0212      	lsls	r2, r2, #8
    739e:	f402 6200 	and.w	r2, r2, #2048	; 0x800
    73a2:	f004 f909 	bl	b5b8 <RAILINT_fc431c63280fcec9c8f1f2616df249e6>
    73a6:	7823      	ldrb	r3, [r4, #0]
    73a8:	f013 0f08 	tst.w	r3, #8
    73ac:	f44f 7300 	mov.w	r3, #512	; 0x200
    73b0:	bf14      	ite	ne
    73b2:	4a03      	ldrne	r2, [pc, #12]	; (73c0 <RAILINT_a06f36e75bf41143ad151f38401105ae+0x38>)
    73b4:	4a03      	ldreq	r2, [pc, #12]	; (73c4 <RAILINT_a06f36e75bf41143ad151f38401105ae+0x3c>)
    73b6:	6713      	str	r3, [r2, #112]	; 0x70
    73b8:	bd10      	pop	{r4, pc}
    73ba:	bf00      	nop
    73bc:	b0001e00 	.word	0xb0001e00
    73c0:	a8021000 	.word	0xa8021000
    73c4:	a8022000 	.word	0xa8022000

000073c8 <RAILINT_14d09babf27325aeb090aac0c6f24436>:
    73c8:	b537      	push	{r0, r1, r2, r4, r5, lr}
    73ca:	460c      	mov	r4, r1
    73cc:	4d17      	ldr	r5, [pc, #92]	; (742c <RAILINT_14d09babf27325aeb090aac0c6f24436+0x64>)
    73ce:	b941      	cbnz	r1, 73e2 <RAILINT_14d09babf27325aeb090aac0c6f24436+0x1a>
    73d0:	460a      	mov	r2, r1
    73d2:	2107      	movs	r1, #7
    73d4:	f004 f8f0 	bl	b5b8 <RAILINT_fc431c63280fcec9c8f1f2616df249e6>
    73d8:	4b15      	ldr	r3, [pc, #84]	; (7430 <RAILINT_14d09babf27325aeb090aac0c6f24436+0x68>)
    73da:	61ac      	str	r4, [r5, #24]
    73dc:	605c      	str	r4, [r3, #4]
    73de:	b003      	add	sp, #12
    73e0:	bd30      	pop	{r4, r5, pc}
    73e2:	2207      	movs	r2, #7
    73e4:	4611      	mov	r1, r2
    73e6:	f004 f8e7 	bl	b5b8 <RAILINT_fc431c63280fcec9c8f1f2616df249e6>
    73ea:	2207      	movs	r2, #7
    73ec:	4b11      	ldr	r3, [pc, #68]	; (7434 <RAILINT_14d09babf27325aeb090aac0c6f24436+0x6c>)
    73ee:	2101      	movs	r1, #1
    73f0:	60da      	str	r2, [r3, #12]
    73f2:	7923      	ldrb	r3, [r4, #4]
    73f4:	a801      	add	r0, sp, #4
    73f6:	762b      	strb	r3, [r5, #24]
    73f8:	7963      	ldrb	r3, [r4, #5]
    73fa:	9301      	str	r3, [sp, #4]
    73fc:	f004 f93b 	bl	b676 <RAILINT_b04ac2e87c7e86c14dc53c58ce128069>
    7400:	9b01      	ldr	r3, [sp, #4]
    7402:	b2c2      	uxtb	r2, r0
    7404:	40d3      	lsrs	r3, r2
    7406:	f000 000f 	and.w	r0, r0, #15
    740a:	ea40 1003 	orr.w	r0, r0, r3, lsl #4
    740e:	7668      	strb	r0, [r5, #25]
    7410:	79a3      	ldrb	r3, [r4, #6]
    7412:	4a09      	ldr	r2, [pc, #36]	; (7438 <RAILINT_14d09babf27325aeb090aac0c6f24436+0x70>)
    7414:	76ab      	strb	r3, [r5, #26]
    7416:	79e3      	ldrb	r3, [r4, #7]
    7418:	76eb      	strb	r3, [r5, #27]
    741a:	6823      	ldr	r3, [r4, #0]
    741c:	61eb      	str	r3, [r5, #28]
    741e:	7923      	ldrb	r3, [r4, #4]
    7420:	3301      	adds	r3, #1
    7422:	6213      	str	r3, [r2, #32]
    7424:	f004 f926 	bl	b674 <RAILINT_dc675e4729ddc8fc4759ebbb1d4c3bce>
    7428:	e7d9      	b.n	73de <RAILINT_14d09babf27325aeb090aac0c6f24436+0x16>
    742a:	bf00      	nop
    742c:	b0001f00 	.word	0xb0001f00
    7430:	b0001f18 	.word	0xb0001f18
    7434:	a8006000 	.word	0xa8006000
    7438:	a8004000 	.word	0xa8004000

0000743c <RAILINT_ff4a165288c69b8c0d7a13c9d06da43a>:
    743c:	b510      	push	{r4, lr}
    743e:	784b      	ldrb	r3, [r1, #1]
    7440:	460c      	mov	r4, r1
    7442:	2b00      	cmp	r3, #0
    7444:	d13c      	bne.n	74c0 <RAILINT_ff4a165288c69b8c0d7a13c9d06da43a+0x84>
    7446:	4a39      	ldr	r2, [pc, #228]	; (752c <RAILINT_ff4a165288c69b8c0d7a13c9d06da43a+0xf0>)
    7448:	f8c2 308c 	str.w	r3, [r2, #140]	; 0x8c
    744c:	f04f 5260 	mov.w	r2, #939524096	; 0x38000000
    7450:	4b37      	ldr	r3, [pc, #220]	; (7530 <RAILINT_ff4a165288c69b8c0d7a13c9d06da43a+0xf4>)
    7452:	621a      	str	r2, [r3, #32]
    7454:	4b37      	ldr	r3, [pc, #220]	; (7534 <RAILINT_ff4a165288c69b8c0d7a13c9d06da43a+0xf8>)
    7456:	781b      	ldrb	r3, [r3, #0]
    7458:	b113      	cbz	r3, 7460 <RAILINT_ff4a165288c69b8c0d7a13c9d06da43a+0x24>
    745a:	2206      	movs	r2, #6
    745c:	4b36      	ldr	r3, [pc, #216]	; (7538 <RAILINT_ff4a165288c69b8c0d7a13c9d06da43a+0xfc>)
    745e:	679a      	str	r2, [r3, #120]	; 0x78
    7460:	f04f 5280 	mov.w	r2, #268435456	; 0x10000000
    7464:	4b35      	ldr	r3, [pc, #212]	; (753c <RAILINT_ff4a165288c69b8c0d7a13c9d06da43a+0x100>)
    7466:	67da      	str	r2, [r3, #124]	; 0x7c
    7468:	f5a3 5300 	sub.w	r3, r3, #8192	; 0x2000
    746c:	6f1b      	ldr	r3, [r3, #112]	; 0x70
    746e:	025b      	lsls	r3, r3, #9
    7470:	d408      	bmi.n	7484 <RAILINT_ff4a165288c69b8c0d7a13c9d06da43a+0x48>
    7472:	69c3      	ldr	r3, [r0, #28]
    7474:	f013 0f80 	tst.w	r3, #128	; 0x80
    7478:	f44f 1300 	mov.w	r3, #2097152	; 0x200000
    747c:	bf14      	ite	ne
    747e:	4a30      	ldrne	r2, [pc, #192]	; (7540 <RAILINT_ff4a165288c69b8c0d7a13c9d06da43a+0x104>)
    7480:	4a2b      	ldreq	r2, [pc, #172]	; (7530 <RAILINT_ff4a165288c69b8c0d7a13c9d06da43a+0xf4>)
    7482:	6213      	str	r3, [r2, #32]
    7484:	f44f 7280 	mov.w	r2, #256	; 0x100
    7488:	4b2e      	ldr	r3, [pc, #184]	; (7544 <RAILINT_ff4a165288c69b8c0d7a13c9d06da43a+0x108>)
    748a:	f8c3 20ec 	str.w	r2, [r3, #236]	; 0xec
    748e:	f8c3 20e0 	str.w	r2, [r3, #224]	; 0xe0
    7492:	78a3      	ldrb	r3, [r4, #2]
    7494:	2b00      	cmp	r3, #0
    7496:	d140      	bne.n	751a <RAILINT_ff4a165288c69b8c0d7a13c9d06da43a+0xde>
    7498:	f640 72ff 	movw	r2, #4095	; 0xfff
    749c:	4b2a      	ldr	r3, [pc, #168]	; (7548 <RAILINT_ff4a165288c69b8c0d7a13c9d06da43a+0x10c>)
    749e:	62da      	str	r2, [r3, #44]	; 0x2c
    74a0:	78e3      	ldrb	r3, [r4, #3]
    74a2:	2b00      	cmp	r3, #0
    74a4:	d13c      	bne.n	7520 <RAILINT_ff4a165288c69b8c0d7a13c9d06da43a+0xe4>
    74a6:	f640 72ff 	movw	r2, #4095	; 0xfff
    74aa:	4b27      	ldr	r3, [pc, #156]	; (7548 <RAILINT_ff4a165288c69b8c0d7a13c9d06da43a+0x10c>)
    74ac:	65da      	str	r2, [r3, #92]	; 0x5c
    74ae:	2260      	movs	r2, #96	; 0x60
    74b0:	4b26      	ldr	r3, [pc, #152]	; (754c <RAILINT_ff4a165288c69b8c0d7a13c9d06da43a+0x110>)
    74b2:	64da      	str	r2, [r3, #76]	; 0x4c
    74b4:	f503 33e8 	add.w	r3, r3, #118784	; 0x1d000
    74b8:	2240      	movs	r2, #64	; 0x40
    74ba:	2000      	movs	r0, #0
    74bc:	671a      	str	r2, [r3, #112]	; 0x70
    74be:	bd10      	pop	{r4, pc}
    74c0:	3b01      	subs	r3, #1
    74c2:	b2db      	uxtb	r3, r3
    74c4:	2b03      	cmp	r3, #3
    74c6:	d8e4      	bhi.n	7492 <RAILINT_ff4a165288c69b8c0d7a13c9d06da43a+0x56>
    74c8:	f04f 5160 	mov.w	r1, #939524096	; 0x38000000
    74cc:	4a20      	ldr	r2, [pc, #128]	; (7550 <RAILINT_ff4a165288c69b8c0d7a13c9d06da43a+0x114>)
    74ce:	f852 3023 	ldr.w	r3, [r2, r3, lsl #2]
    74d2:	4a17      	ldr	r2, [pc, #92]	; (7530 <RAILINT_ff4a165288c69b8c0d7a13c9d06da43a+0xf4>)
    74d4:	f443 1300 	orr.w	r3, r3, #2097152	; 0x200000
    74d8:	6211      	str	r1, [r2, #32]
    74da:	f5a2 5280 	sub.w	r2, r2, #4096	; 0x1000
    74de:	6213      	str	r3, [r2, #32]
    74e0:	2304      	movs	r3, #4
    74e2:	f5a2 3288 	sub.w	r2, r2, #69632	; 0x11000
    74e6:	f8c2 308c 	str.w	r3, [r2, #140]	; 0x8c
    74ea:	6f93      	ldr	r3, [r2, #120]	; 0x78
    74ec:	f023 0306 	bic.w	r3, r3, #6
    74f0:	f043 0304 	orr.w	r3, r3, #4
    74f4:	6793      	str	r3, [r2, #120]	; 0x78
    74f6:	f04f 5280 	mov.w	r2, #268435456	; 0x10000000
    74fa:	4b16      	ldr	r3, [pc, #88]	; (7554 <RAILINT_ff4a165288c69b8c0d7a13c9d06da43a+0x118>)
    74fc:	67da      	str	r2, [r3, #124]	; 0x7c
    74fe:	f003 facf 	bl	aaa0 <RAILINT_5d6f9e1abd47331b2e5065ec63f9f308>
    7502:	2800      	cmp	r0, #0
    7504:	d0c5      	beq.n	7492 <RAILINT_ff4a165288c69b8c0d7a13c9d06da43a+0x56>
    7506:	f44f 7380 	mov.w	r3, #256	; 0x100
    750a:	4a0e      	ldr	r2, [pc, #56]	; (7544 <RAILINT_ff4a165288c69b8c0d7a13c9d06da43a+0x108>)
    750c:	f8c2 30e0 	str.w	r3, [r2, #224]	; 0xe0
    7510:	f5a2 5280 	sub.w	r2, r2, #4096	; 0x1000
    7514:	f8c2 30ec 	str.w	r3, [r2, #236]	; 0xec
    7518:	e7bb      	b.n	7492 <RAILINT_ff4a165288c69b8c0d7a13c9d06da43a+0x56>
    751a:	f7ff ff1f 	bl	735c <RAILINT_cd2294a9b77625e0ea5276bdf2a90514>
    751e:	e7bf      	b.n	74a0 <RAILINT_ff4a165288c69b8c0d7a13c9d06da43a+0x64>
    7520:	2260      	movs	r2, #96	; 0x60
    7522:	4b05      	ldr	r3, [pc, #20]	; (7538 <RAILINT_ff4a165288c69b8c0d7a13c9d06da43a+0xfc>)
    7524:	64da      	str	r2, [r3, #76]	; 0x4c
    7526:	f503 33d8 	add.w	r3, r3, #110592	; 0x1b000
    752a:	e7c5      	b.n	74b8 <RAILINT_ff4a165288c69b8c0d7a13c9d06da43a+0x7c>
    752c:	a8004000 	.word	0xa8004000
    7530:	a8016000 	.word	0xa8016000
    7534:	20000cc8 	.word	0x20000cc8
    7538:	a8006000 	.word	0xa8006000
    753c:	a8022000 	.word	0xa8022000
    7540:	a8015000 	.word	0xa8015000
    7544:	44006000 	.word	0x44006000
    7548:	44004000 	.word	0x44004000
    754c:	a8005000 	.word	0xa8005000
    7550:	0000bebc 	.word	0x0000bebc
    7554:	a8021000 	.word	0xa8021000

00007558 <RAILINT_9a12d5b6e36b120af4f5fbee5b057a33>:
    7558:	4a04      	ldr	r2, [pc, #16]	; (756c <RAILINT_9a12d5b6e36b120af4f5fbee5b057a33+0x14>)
    755a:	02c0      	lsls	r0, r0, #11
    755c:	69d3      	ldr	r3, [r2, #28]
    755e:	f400 20ff 	and.w	r0, r0, #522240	; 0x7f800
    7562:	f423 23ff 	bic.w	r3, r3, #522240	; 0x7f800
    7566:	4318      	orrs	r0, r3
    7568:	61d0      	str	r0, [r2, #28]
    756a:	4770      	bx	lr
    756c:	a800c000 	.word	0xa800c000

00007570 <RAILINT_2c0c7ba0065447faa0ab7205349f5d73>:
    7570:	4b43      	ldr	r3, [pc, #268]	; (7680 <RAILINT_2c0c7ba0065447faa0ab7205349f5d73+0x110>)
    7572:	e92d 41f3 	stmdb	sp!, {r0, r1, r4, r5, r6, r7, r8, lr}
    7576:	681e      	ldr	r6, [r3, #0]
    7578:	4605      	mov	r5, r0
    757a:	460c      	mov	r4, r1
    757c:	4617      	mov	r7, r2
    757e:	b106      	cbz	r6, 7582 <RAILINT_2c0c7ba0065447faa0ab7205349f5d73+0x12>
    7580:	360c      	adds	r6, #12
    7582:	f240 2302 	movw	r3, #514	; 0x202
    7586:	f005 0201 	and.w	r2, r5, #1
    758a:	4023      	ands	r3, r4
    758c:	4313      	orrs	r3, r2
    758e:	d044      	beq.n	761a <RAILINT_2c0c7ba0065447faa0ab7205349f5d73+0xaa>
    7590:	07a3      	lsls	r3, r4, #30
    7592:	d509      	bpl.n	75a8 <RAILINT_2c0c7ba0065447faa0ab7205349f5d73+0x38>
    7594:	4b3b      	ldr	r3, [pc, #236]	; (7684 <RAILINT_2c0c7ba0065447faa0ab7205349f5d73+0x114>)
    7596:	f8d3 3ecc 	ldr.w	r3, [r3, #3788]	; 0xecc
    759a:	f003 03c0 	and.w	r3, r3, #192	; 0xc0
    759e:	2b40      	cmp	r3, #64	; 0x40
    75a0:	bf02      	ittt	eq
    75a2:	2102      	moveq	r1, #2
    75a4:	4b38      	ldreq	r3, [pc, #224]	; (7688 <RAILINT_2c0c7ba0065447faa0ab7205349f5d73+0x118>)
    75a6:	6099      	streq	r1, [r3, #8]
    75a8:	f04f 0800 	mov.w	r8, #0
    75ac:	b35a      	cbz	r2, 7606 <RAILINT_2c0c7ba0065447faa0ab7205349f5d73+0x96>
    75ae:	2300      	movs	r3, #0
    75b0:	2200      	movs	r2, #0
    75b2:	2100      	movs	r1, #0
    75b4:	2001      	movs	r0, #1
    75b6:	e9cd 8800 	strd	r8, r8, [sp]
    75ba:	f003 f88f 	bl	a6dc <RAILINT_e56520736dccfc6b4febe00b533ea27a>
    75be:	2004      	movs	r0, #4
    75c0:	f002 f830 	bl	9624 <RAILINT_4f93cdd7aecf168775f2a95c9141aec8>
    75c4:	f04f 30ff 	mov.w	r0, #4294967295	; 0xffffffff
    75c8:	f002 fb5e 	bl	9c88 <RAILINT_0f8f345c59ce02114959a6bf3fac0981>
    75cc:	4641      	mov	r1, r8
    75ce:	8170      	strh	r0, [r6, #10]
    75d0:	2001      	movs	r0, #1
    75d2:	f7ff fafb 	bl	6bcc <RAILINT_499a6fa84e713dbcc15223a1179c1579>
    75d6:	4b2d      	ldr	r3, [pc, #180]	; (768c <RAILINT_2c0c7ba0065447faa0ab7205349f5d73+0x11c>)
    75d8:	6f1b      	ldr	r3, [r3, #112]	; 0x70
    75da:	0258      	lsls	r0, r3, #9
    75dc:	d408      	bmi.n	75f0 <RAILINT_2c0c7ba0065447faa0ab7205349f5d73+0x80>
    75de:	69f3      	ldr	r3, [r6, #28]
    75e0:	f013 0f80 	tst.w	r3, #128	; 0x80
    75e4:	f44f 1300 	mov.w	r3, #2097152	; 0x200000
    75e8:	bf14      	ite	ne
    75ea:	4a29      	ldrne	r2, [pc, #164]	; (7690 <RAILINT_2c0c7ba0065447faa0ab7205349f5d73+0x120>)
    75ec:	4a29      	ldreq	r2, [pc, #164]	; (7694 <RAILINT_2c0c7ba0065447faa0ab7205349f5d73+0x124>)
    75ee:	6213      	str	r3, [r2, #32]
    75f0:	4929      	ldr	r1, [pc, #164]	; (7698 <RAILINT_2c0c7ba0065447faa0ab7205349f5d73+0x128>)
    75f2:	6808      	ldr	r0, [r1, #0]
    75f4:	f7ff fe6c 	bl	72d0 <RAILINT_57fa2c163b50cc6661e10e0e7662afb8>
    75f8:	f04f 33ff 	mov.w	r3, #4294967295	; 0xffffffff
    75fc:	600b      	str	r3, [r1, #0]
    75fe:	7833      	ldrb	r3, [r6, #0]
    7600:	f043 0304 	orr.w	r3, r3, #4
    7604:	7033      	strb	r3, [r6, #0]
    7606:	05a1      	lsls	r1, r4, #22
    7608:	d507      	bpl.n	761a <RAILINT_2c0c7ba0065447faa0ab7205349f5d73+0xaa>
    760a:	2101      	movs	r1, #1
    760c:	4630      	mov	r0, r6
    760e:	f7ff fd3f 	bl	7090 <RAILINT_45e98292b11a528e9c15f82e1aa2d629>
    7612:	f424 7400 	bic.w	r4, r4, #512	; 0x200
    7616:	4305      	orrs	r5, r0
    7618:	430c      	orrs	r4, r1
    761a:	e9d6 233a 	ldrd	r2, r3, [r6, #232]	; 0xe8
    761e:	4015      	ands	r5, r2
    7620:	4023      	ands	r3, r4
    7622:	ea55 0203 	orrs.w	r2, r5, r3
    7626:	d00a      	beq.n	763e <RAILINT_2c0c7ba0065447faa0ab7205349f5d73+0xce>
    7628:	4a1c      	ldr	r2, [pc, #112]	; (769c <RAILINT_2c0c7ba0065447faa0ab7205349f5d73+0x12c>)
    762a:	f1a6 000c 	sub.w	r0, r6, #12
    762e:	6811      	ldr	r1, [r2, #0]
    7630:	462a      	mov	r2, r5
    7632:	4788      	blx	r1
    7634:	072a      	lsls	r2, r5, #28
    7636:	bf42      	ittt	mi
    7638:	2200      	movmi	r2, #0
    763a:	4b19      	ldrmi	r3, [pc, #100]	; (76a0 <RAILINT_2c0c7ba0065447faa0ab7205349f5d73+0x130>)
    763c:	601a      	strmi	r2, [r3, #0]
    763e:	07fb      	lsls	r3, r7, #31
    7640:	d50f      	bpl.n	7662 <RAILINT_2c0c7ba0065447faa0ab7205349f5d73+0xf2>
    7642:	4918      	ldr	r1, [pc, #96]	; (76a4 <RAILINT_2c0c7ba0065447faa0ab7205349f5d73+0x134>)
    7644:	4a18      	ldr	r2, [pc, #96]	; (76a8 <RAILINT_2c0c7ba0065447faa0ab7205349f5d73+0x138>)
    7646:	6808      	ldr	r0, [r1, #0]
    7648:	2100      	movs	r1, #0
    764a:	6813      	ldr	r3, [r2, #0]
    764c:	6011      	str	r1, [r2, #0]
    764e:	2101      	movs	r1, #1
    7650:	4a16      	ldr	r2, [pc, #88]	; (76ac <RAILINT_2c0c7ba0065447faa0ab7205349f5d73+0x13c>)
    7652:	7011      	strb	r1, [r2, #0]
    7654:	b103      	cbz	r3, 7658 <RAILINT_2c0c7ba0065447faa0ab7205349f5d73+0xe8>
    7656:	4798      	blx	r3
    7658:	4b15      	ldr	r3, [pc, #84]	; (76b0 <RAILINT_2c0c7ba0065447faa0ab7205349f5d73+0x140>)
    765a:	2100      	movs	r1, #0
    765c:	2002      	movs	r0, #2
    765e:	685b      	ldr	r3, [r3, #4]
    7660:	4798      	blx	r3
    7662:	f017 0f0e 	tst.w	r7, #14
    7666:	d008      	beq.n	767a <RAILINT_2c0c7ba0065447faa0ab7205349f5d73+0x10a>
    7668:	f44f 72b0 	mov.w	r2, #352	; 0x160
    766c:	213b      	movs	r1, #59	; 0x3b
    766e:	2000      	movs	r0, #0
    7670:	b002      	add	sp, #8
    7672:	e8bd 41f0 	ldmia.w	sp!, {r4, r5, r6, r7, r8, lr}
    7676:	f7ff bd5f 	b.w	7138 <RAILINT_205167ae842e22724c3f35c6430eeddb>
    767a:	b002      	add	sp, #8
    767c:	e8bd 81f0 	ldmia.w	sp!, {r4, r5, r6, r7, r8, pc}
    7680:	20000aa8 	.word	0x20000aa8
    7684:	b0001000 	.word	0xb0001000
    7688:	a8021000 	.word	0xa8021000
    768c:	a8020000 	.word	0xa8020000
    7690:	a8015000 	.word	0xa8015000
    7694:	a8016000 	.word	0xa8016000
    7698:	200001dc 	.word	0x200001dc
    769c:	200001d8 	.word	0x200001d8
    76a0:	20000ccc 	.word	0x20000ccc
    76a4:	20000ce4 	.word	0x20000ce4
    76a8:	20000ce0 	.word	0x20000ce0
    76ac:	20000cdc 	.word	0x20000cdc
    76b0:	200001d0 	.word	0x200001d0

000076b4 <RAILINT_2a4da4d01b26a7f90998f094ef0d126c>:
    76b4:	b5f7      	push	{r0, r1, r2, r4, r5, r6, r7, lr}
    76b6:	e9d0 c73a 	ldrd	ip, r7, [r0, #232]	; 0xe8
    76ba:	4619      	mov	r1, r3
    76bc:	e9dd 6308 	ldrd	r6, r3, [sp, #32]
    76c0:	4604      	mov	r4, r0
    76c2:	ea8c 0506 	eor.w	r5, ip, r6
    76c6:	ea87 0003 	eor.w	r0, r7, r3
    76ca:	4015      	ands	r5, r2
    76cc:	4008      	ands	r0, r1
    76ce:	ea85 050c 	eor.w	r5, r5, ip
    76d2:	4078      	eors	r0, r7
    76d4:	e9c4 503a 	strd	r5, r0, [r4, #232]	; 0xe8
    76d8:	2500      	movs	r5, #0
    76da:	400b      	ands	r3, r1
    76dc:	f022 0001 	bic.w	r0, r2, #1
    76e0:	f443 7300 	orr.w	r3, r3, #512	; 0x200
    76e4:	ea06 0200 	and.w	r2, r6, r0
    76e8:	f043 0302 	orr.w	r3, r3, #2
    76ec:	e9cd 5500 	strd	r5, r5, [sp]
    76f0:	f002 fff4 	bl	a6dc <RAILINT_e56520736dccfc6b4febe00b533ea27a>
    76f4:	7823      	ldrb	r3, [r4, #0]
    76f6:	07da      	lsls	r2, r3, #31
    76f8:	d518      	bpl.n	772c <RAILINT_2a4da4d01b26a7f90998f094ef0d126c+0x78>
    76fa:	f8d4 30ec 	ldr.w	r3, [r4, #236]	; 0xec
    76fe:	059b      	lsls	r3, r3, #22
    7700:	d514      	bpl.n	772c <RAILINT_2a4da4d01b26a7f90998f094ef0d126c+0x78>
    7702:	f44f 3180 	mov.w	r1, #65536	; 0x10000
    7706:	4620      	mov	r0, r4
    7708:	f7ff fcc2 	bl	7090 <RAILINT_45e98292b11a528e9c15f82e1aa2d629>
    770c:	7823      	ldrb	r3, [r4, #0]
    770e:	f365 0300 	bfi	r3, r5, #0, #1
    7712:	7023      	strb	r3, [r4, #0]
    7714:	e9d4 233a 	ldrd	r2, r3, [r4, #232]	; 0xe8
    7718:	4002      	ands	r2, r0
    771a:	400b      	ands	r3, r1
    771c:	ea52 0103 	orrs.w	r1, r2, r3
    7720:	d004      	beq.n	772c <RAILINT_2a4da4d01b26a7f90998f094ef0d126c+0x78>
    7722:	4904      	ldr	r1, [pc, #16]	; (7734 <RAILINT_2a4da4d01b26a7f90998f094ef0d126c+0x80>)
    7724:	f1a4 000c 	sub.w	r0, r4, #12
    7728:	6809      	ldr	r1, [r1, #0]
    772a:	4788      	blx	r1
    772c:	2000      	movs	r0, #0
    772e:	b003      	add	sp, #12
    7730:	bdf0      	pop	{r4, r5, r6, r7, pc}
    7732:	bf00      	nop
    7734:	200001d8 	.word	0x200001d8

00007738 <RAILINT_ee8e30d6c3ef95b8e8dca03da7401c07>:
    7738:	4a03      	ldr	r2, [pc, #12]	; (7748 <RAILINT_ee8e30d6c3ef95b8e8dca03da7401c07+0x10>)
    773a:	6803      	ldr	r3, [r0, #0]
    773c:	2b00      	cmp	r3, #0
    773e:	bf08      	it	eq
    7740:	4613      	moveq	r3, r2
    7742:	4a02      	ldr	r2, [pc, #8]	; (774c <RAILINT_ee8e30d6c3ef95b8e8dca03da7401c07+0x14>)
    7744:	6013      	str	r3, [r2, #0]
    7746:	4770      	bx	lr
    7748:	000072cd 	.word	0x000072cd
    774c:	200001d8 	.word	0x200001d8

00007750 <RAILINT_3131b2227caece62bdb8e184ed31ce2e>:
    7750:	e92d 41f0 	stmdb	sp!, {r4, r5, r6, r7, r8, lr}
    7754:	4606      	mov	r6, r0
    7756:	4614      	mov	r4, r2
    7758:	461d      	mov	r5, r3
    775a:	460f      	mov	r7, r1
    775c:	b086      	sub	sp, #24
    775e:	2900      	cmp	r1, #0
    7760:	d046      	beq.n	77f0 <RAILINT_3131b2227caece62bdb8e184ed31ce2e+0xa0>
    7762:	b1fa      	cbz	r2, 77a4 <RAILINT_3131b2227caece62bdb8e184ed31ce2e+0x54>
    7764:	b360      	cbz	r0, 77c0 <RAILINT_3131b2227caece62bdb8e184ed31ce2e+0x70>
    7766:	f8df 8098 	ldr.w	r8, [pc, #152]	; 7800 <RAILINT_3131b2227caece62bdb8e184ed31ce2e+0xb0>
    776a:	f7fe fcaf 	bl	60cc <CORE_EnterCritical>
    776e:	f8d8 3000 	ldr.w	r3, [r8]
    7772:	42b3      	cmp	r3, r6
    7774:	d11a      	bne.n	77ac <RAILINT_3131b2227caece62bdb8e184ed31ce2e+0x5c>
    7776:	4b1f      	ldr	r3, [pc, #124]	; (77f4 <RAILINT_3131b2227caece62bdb8e184ed31ce2e+0xa4>)
    7778:	881b      	ldrh	r3, [r3, #0]
    777a:	f8ad 3002 	strh.w	r3, [sp, #2]
    777e:	4b1e      	ldr	r3, [pc, #120]	; (77f8 <RAILINT_3131b2227caece62bdb8e184ed31ce2e+0xa8>)
    7780:	881e      	ldrh	r6, [r3, #0]
    7782:	f7fe fca7 	bl	60d4 <CORE_ExitCritical>
    7786:	192b      	adds	r3, r5, r4
    7788:	42b3      	cmp	r3, r6
    778a:	f8bd 3002 	ldrh.w	r3, [sp, #2]
    778e:	bfc4      	itt	gt
    7790:	1b74      	subgt	r4, r6, r5
    7792:	b2a4      	uxthgt	r4, r4
    7794:	442b      	add	r3, r5
    7796:	4622      	mov	r2, r4
    7798:	4639      	mov	r1, r7
    779a:	4818      	ldr	r0, [pc, #96]	; (77fc <RAILINT_3131b2227caece62bdb8e184ed31ce2e+0xac>)
    779c:	b29b      	uxth	r3, r3
    779e:	f001 f919 	bl	89d4 <RAILINT_cf127192a488f2899b98e74293e0d50f>
    77a2:	4604      	mov	r4, r0
    77a4:	4620      	mov	r0, r4
    77a6:	b006      	add	sp, #24
    77a8:	e8bd 81f0 	ldmia.w	sp!, {r4, r5, r6, r7, r8, pc}
    77ac:	f7fe fc92 	bl	60d4 <CORE_ExitCritical>
    77b0:	4630      	mov	r0, r6
    77b2:	f10d 0202 	add.w	r2, sp, #2
    77b6:	a901      	add	r1, sp, #4
    77b8:	f001 faae 	bl	8d18 <RAILINT_3c133834576f64bd8ce53e3b0fe38f30>
    77bc:	4606      	mov	r6, r0
    77be:	b908      	cbnz	r0, 77c4 <RAILINT_3131b2227caece62bdb8e184ed31ce2e+0x74>
    77c0:	4634      	mov	r4, r6
    77c2:	e7ef      	b.n	77a4 <RAILINT_3131b2227caece62bdb8e184ed31ce2e+0x54>
    77c4:	f89d 3004 	ldrb.w	r3, [sp, #4]
    77c8:	f013 0ff7 	tst.w	r3, #247	; 0xf7
    77cc:	d00d      	beq.n	77ea <RAILINT_3131b2227caece62bdb8e184ed31ce2e+0x9a>
    77ce:	f7fe fc7d 	bl	60cc <CORE_EnterCritical>
    77d2:	4b08      	ldr	r3, [pc, #32]	; (77f4 <RAILINT_3131b2227caece62bdb8e184ed31ce2e+0xa4>)
    77d4:	f8bd 2002 	ldrh.w	r2, [sp, #2]
    77d8:	f8c8 6000 	str.w	r6, [r8]
    77dc:	801a      	strh	r2, [r3, #0]
    77de:	4b06      	ldr	r3, [pc, #24]	; (77f8 <RAILINT_3131b2227caece62bdb8e184ed31ce2e+0xa8>)
    77e0:	f8bd 2006 	ldrh.w	r2, [sp, #6]
    77e4:	801a      	strh	r2, [r3, #0]
    77e6:	f7fe fc75 	bl	60d4 <CORE_ExitCritical>
    77ea:	f8bd 6006 	ldrh.w	r6, [sp, #6]
    77ee:	e7ca      	b.n	7786 <RAILINT_3131b2227caece62bdb8e184ed31ce2e+0x36>
    77f0:	460c      	mov	r4, r1
    77f2:	e7d7      	b.n	77a4 <RAILINT_3131b2227caece62bdb8e184ed31ce2e+0x54>
    77f4:	20000cd0 	.word	0x20000cd0
    77f8:	20000cca 	.word	0x20000cca
    77fc:	44004038 	.word	0x44004038
    7800:	20000ccc 	.word	0x20000ccc

00007804 <RAILINT_afeea334a0413e3fba4d9024b9c8696e>:
    7804:	4b01      	ldr	r3, [pc, #4]	; (780c <RAILINT_afeea334a0413e3fba4d9024b9c8696e+0x8>)
    7806:	2000      	movs	r0, #0
    7808:	6319      	str	r1, [r3, #48]	; 0x30
    780a:	4770      	bx	lr
    780c:	b0001f00 	.word	0xb0001f00

00007810 <RAILINT_99f0e717b1ae5f07aeace88464176fa9>:
    7810:	2803      	cmp	r0, #3
    7812:	e92d 41f3 	stmdb	sp!, {r0, r1, r4, r5, r6, r7, r8, lr}
    7816:	d83e      	bhi.n	7896 <RAILINT_99f0e717b1ae5f07aeace88464176fa9+0x86>
    7818:	4b20      	ldr	r3, [pc, #128]	; (789c <RAILINT_99f0e717b1ae5f07aeace88464176fa9+0x8c>)
    781a:	5c1e      	ldrb	r6, [r3, r0]
    781c:	4b20      	ldr	r3, [pc, #128]	; (78a0 <RAILINT_99f0e717b1ae5f07aeace88464176fa9+0x90>)
    781e:	5c1f      	ldrb	r7, [r3, r0]
    7820:	4b20      	ldr	r3, [pc, #128]	; (78a4 <RAILINT_99f0e717b1ae5f07aeace88464176fa9+0x94>)
    7822:	f813 8000 	ldrb.w	r8, [r3, r0]
    7826:	f7fe fc51 	bl	60cc <CORE_EnterCritical>
    782a:	4605      	mov	r5, r0
    782c:	f003 f930 	bl	aa90 <RAILINT_0e4fab607515a0ae94861cde84b8a317>
    7830:	4604      	mov	r4, r0
    7832:	b140      	cbz	r0, 7846 <RAILINT_99f0e717b1ae5f07aeace88464176fa9+0x36>
    7834:	2300      	movs	r3, #0
    7836:	2200      	movs	r2, #0
    7838:	e9cd 3300 	strd	r3, r3, [sp]
    783c:	2001      	movs	r0, #1
    783e:	2300      	movs	r3, #0
    7840:	2100      	movs	r1, #0
    7842:	f002 ff4b 	bl	a6dc <RAILINT_e56520736dccfc6b4febe00b533ea27a>
    7846:	4639      	mov	r1, r7
    7848:	4630      	mov	r0, r6
    784a:	f003 f9b3 	bl	abb4 <RAILINT_cf4e885725a47449d7a6caf77bda2061>
    784e:	4642      	mov	r2, r8
    7850:	4639      	mov	r1, r7
    7852:	4630      	mov	r0, r6
    7854:	f003 fa04 	bl	ac60 <RAILINT_415699d4fedc812ab5645a39d53b6366>
    7858:	b1bc      	cbz	r4, 788a <RAILINT_99f0e717b1ae5f07aeace88464176fa9+0x7a>
    785a:	4b13      	ldr	r3, [pc, #76]	; (78a8 <RAILINT_99f0e717b1ae5f07aeace88464176fa9+0x98>)
    785c:	681b      	ldr	r3, [r3, #0]
    785e:	b103      	cbz	r3, 7862 <RAILINT_99f0e717b1ae5f07aeace88464176fa9+0x52>
    7860:	330c      	adds	r3, #12
    7862:	4a12      	ldr	r2, [pc, #72]	; (78ac <RAILINT_99f0e717b1ae5f07aeace88464176fa9+0x9c>)
    7864:	6f12      	ldr	r2, [r2, #112]	; 0x70
    7866:	0252      	lsls	r2, r2, #9
    7868:	d408      	bmi.n	787c <RAILINT_99f0e717b1ae5f07aeace88464176fa9+0x6c>
    786a:	69db      	ldr	r3, [r3, #28]
    786c:	f013 0f80 	tst.w	r3, #128	; 0x80
    7870:	f44f 1300 	mov.w	r3, #2097152	; 0x200000
    7874:	bf14      	ite	ne
    7876:	4a0e      	ldrne	r2, [pc, #56]	; (78b0 <RAILINT_99f0e717b1ae5f07aeace88464176fa9+0xa0>)
    7878:	4a0e      	ldreq	r2, [pc, #56]	; (78b4 <RAILINT_99f0e717b1ae5f07aeace88464176fa9+0xa4>)
    787a:	6213      	str	r3, [r2, #32]
    787c:	490e      	ldr	r1, [pc, #56]	; (78b8 <RAILINT_99f0e717b1ae5f07aeace88464176fa9+0xa8>)
    787e:	6808      	ldr	r0, [r1, #0]
    7880:	f7ff fd26 	bl	72d0 <RAILINT_57fa2c163b50cc6661e10e0e7662afb8>
    7884:	f04f 33ff 	mov.w	r3, #4294967295	; 0xffffffff
    7888:	600b      	str	r3, [r1, #0]
    788a:	4628      	mov	r0, r5
    788c:	b002      	add	sp, #8
    788e:	e8bd 41f0 	ldmia.w	sp!, {r4, r5, r6, r7, r8, lr}
    7892:	f7fe bc1f 	b.w	60d4 <CORE_ExitCritical>
    7896:	b002      	add	sp, #8
    7898:	e8bd 81f0 	ldmia.w	sp!, {r4, r5, r6, r7, r8, pc}
    789c:	0000becc 	.word	0x0000becc
    78a0:	0000bed0 	.word	0x0000bed0
    78a4:	0000bed4 	.word	0x0000bed4
    78a8:	20000aa8 	.word	0x20000aa8
    78ac:	a8020000 	.word	0xa8020000
    78b0:	a8015000 	.word	0xa8015000
    78b4:	a8016000 	.word	0xa8016000
    78b8:	200001dc 	.word	0x200001dc

000078bc <RAILINT_a4b57b9485a34098ab089f4c182a3c25>:
    78bc:	b508      	push	{r3, lr}
    78be:	f7ff fcfd 	bl	72bc <RAILINT_07411be539f067663dfa5aa99baea238>
    78c2:	3801      	subs	r0, #1
    78c4:	b2c0      	uxtb	r0, r0
    78c6:	280b      	cmp	r0, #11
    78c8:	d802      	bhi.n	78d0 <RAILINT_a4b57b9485a34098ab089f4c182a3c25+0x14>
    78ca:	4b05      	ldr	r3, [pc, #20]	; (78e0 <RAILINT_a4b57b9485a34098ab089f4c182a3c25+0x24>)
    78cc:	5c18      	ldrb	r0, [r3, r0]
    78ce:	bd08      	pop	{r3, pc}
    78d0:	4b04      	ldr	r3, [pc, #16]	; (78e4 <RAILINT_a4b57b9485a34098ab089f4c182a3c25+0x28>)
    78d2:	695b      	ldr	r3, [r3, #20]
    78d4:	f013 0f06 	tst.w	r3, #6
    78d8:	bf0c      	ite	eq
    78da:	2001      	moveq	r0, #1
    78dc:	2004      	movne	r0, #4
    78de:	e7f6      	b.n	78ce <RAILINT_a4b57b9485a34098ab089f4c182a3c25+0x12>
    78e0:	0000bed8 	.word	0x0000bed8
    78e4:	a801c000 	.word	0xa801c000

000078e8 <RAILINT_dadf1c52f26190429dcacf7151424c68>:
    78e8:	b508      	push	{r3, lr}
    78ea:	f7ff fd4d 	bl	7388 <RAILINT_a06f36e75bf41143ad151f38401105ae>
    78ee:	f7fe fbed 	bl	60cc <CORE_EnterCritical>
    78f2:	4a07      	ldr	r2, [pc, #28]	; (7910 <RAILINT_dadf1c52f26190429dcacf7151424c68+0x28>)
    78f4:	f8d2 3e9c 	ldr.w	r3, [r2, #3740]	; 0xe9c
    78f8:	f023 0320 	bic.w	r3, r3, #32
    78fc:	f8c2 3e9c 	str.w	r3, [r2, #3740]	; 0xe9c
    7900:	f7fe fbe8 	bl	60d4 <CORE_ExitCritical>
    7904:	2202      	movs	r2, #2
    7906:	4b03      	ldr	r3, [pc, #12]	; (7914 <RAILINT_dadf1c52f26190429dcacf7151424c68+0x2c>)
    7908:	2000      	movs	r0, #0
    790a:	609a      	str	r2, [r3, #8]
    790c:	bd08      	pop	{r3, pc}
    790e:	bf00      	nop
    7910:	b0001000 	.word	0xb0001000
    7914:	a8021000 	.word	0xa8021000

00007918 <RAILINT_3339c86656af5bd3809fcaff6decfb50>:
    7918:	4b09      	ldr	r3, [pc, #36]	; (7940 <RAILINT_3339c86656af5bd3809fcaff6decfb50+0x28>)
    791a:	4608      	mov	r0, r1
